

Microchip Technology PIC18 LITE Macro Assembler V1.20 build 52243 
                                                                                               Thu Feb 19 09:29:18 2015

Microchip Technology Omniscient Code Generator (Lite mode) build 52243
     1                           	processor	18F45K20
     2                           	fnconf	rparam,??,?,0
     3                           	opt	pw 120
     4                           	opt	lm
     5                           	psect	intcodelo,global,reloc=2,class=CODE,delta=1
     6                           	psect	cinit,global,reloc=2,class=CODE,delta=1
     7                           	psect	bssCOMRAM,global,class=COMRAM,space=1,delta=1
     8                           	psect	cstackCOMRAM,global,class=COMRAM,space=1,delta=1
     9                           	psect	text0,global,reloc=2,class=CODE,delta=1
    10                           	psect	text1,global,reloc=2,class=CODE,delta=1
    11                           	psect	intcode,global,reloc=2,class=CODE,delta=1
    12                           	psect	intcode_body,global,reloc=2,class=CODE,delta=1
    13                           	psect	intsave_regs,global,class=BIGRAM,space=1,delta=1
    14                           	psect	rparam,global,class=COMRAM,space=1,delta=1
    15  0000                     _ANSELH	set	3967
    16  0000                     _INTCONbits	set	4082
    17  0000                     _PORTD	set	3971
    18  0000                     _PORTDbits	set	3971
    19  0000                     _T0CONbits	set	4053
    20  0000                     _TMR0H	set	4055
    21  0000                     _TMR0L	set	4054
    22  0000                     _TRISBbits	set	3987
    23  0000                     _TRISD	set	3989
    24                           
    25 ;; *************** function _low_isr *****************
    26 ;; Defined at:
    27 ;;		line 38 in file "interrupts.c"
    28 ;; Parameters:    Size  Location     Type
    29 ;;		None
    30 ;; Auto vars:     Size  Location     Type
    31 ;;		None
    32 ;; Return value:  Size  Location     Type
    33 ;;		None               void
    34 ;; Registers used:
    35 ;;		None
    36 ;; Tracked objects:
    37 ;;		On entry : 0/0
    38 ;;		On exit  : 0/0
    39 ;;		Unchanged: 0/0
    40 ;; Data sizes:     COMRAM   BANK0   BANK1   BANK2   BANK3   BANK4   BANK5
    41 ;;      Params:         0       0       0       0       0       0       0
    42 ;;      Locals:         0       0       0       0       0       0       0
    43 ;;      Temps:         17       0       0       0       0       0       0
    44 ;;      Totals:        17       0       0       0       0       0       0
    45 ;;Total ram usage:       17 bytes
    46 ;; Hardware stack levels used:    1
    47 ;; Hardware stack levels required when called:    1
    48 ;; This function calls:
    49 ;;		Nothing
    50 ;; This function is called by:
    51 ;;		Interrupt level 1
    52 ;; This function uses a non-reentrant model
    53 ;;
    54                           
    55                           	psect	intcodelo
    56  000018                     __pintcodelo:
    57                           	opt stack 0
    58                           
    59                           ; #config settings
    60  000018                     _low_isr:
    61                           	opt stack 28
    62                           
    63                           ;incstack = 0
    64  000018  CFD8 F001          	movff	status,??_low_isr
    65  00001C  CFE8 F002          	movff	wreg,??_low_isr+1
    66  000020  CFE0 F003          	movff	bsr,??_low_isr+2
    67  000024  CFFA F004          	movff	pclath,??_low_isr+3
    68  000028  CFFB F005          	movff	pclatu,??_low_isr+4
    69  00002C  CFE9 F006          	movff	fsr0l,??_low_isr+5
    70  000030  CFEA F007          	movff	fsr0h,??_low_isr+6
    71  000034  CFE1 F008          	movff	fsr1l,??_low_isr+7
    72  000038  CFE2 F009          	movff	fsr1h,??_low_isr+8
    73  00003C  CFD9 F00A          	movff	fsr2l,??_low_isr+9
    74  000040  CFDA F00B          	movff	fsr2h,??_low_isr+10
    75  000044  CFF3 F00C          	movff	prodl,??_low_isr+11
    76  000048  CFF4 F00D          	movff	prodh,??_low_isr+12
    77  00004C  CFF6 F00E          	movff	tblptrl,??_low_isr+13
    78  000050  CFF7 F00F          	movff	tblptrh,??_low_isr+14
    79  000054  CFF8 F010          	movff	tblptru,??_low_isr+15
    80  000058  CFF5 F011          	movff	tablat,??_low_isr+16
    81  00005C  C011  FFF5         	movff	??_low_isr+16,tablat
    82  000060  C010  FFF8         	movff	??_low_isr+15,tblptru
    83  000064  C00F  FFF7         	movff	??_low_isr+14,tblptrh
    84  000068  C00E  FFF6         	movff	??_low_isr+13,tblptrl
    85  00006C  C00D  FFF4         	movff	??_low_isr+12,prodh
    86  000070  C00C  FFF3         	movff	??_low_isr+11,prodl
    87  000074  C00B  FFDA         	movff	??_low_isr+10,fsr2h
    88  000078  C00A  FFD9         	movff	??_low_isr+9,fsr2l
    89  00007C  C009  FFE2         	movff	??_low_isr+8,fsr1h
    90  000080  C008  FFE1         	movff	??_low_isr+7,fsr1l
    91  000084  C007  FFEA         	movff	??_low_isr+6,fsr0h
    92  000088  C006  FFE9         	movff	??_low_isr+5,fsr0l
    93  00008C  C005  FFFB         	movff	??_low_isr+4,pclatu
    94  000090  C004  FFFA         	movff	??_low_isr+3,pclath
    95  000094  C003  FFE0         	movff	??_low_isr+2,bsr
    96  000098  C002  FFE8         	movff	??_low_isr+1,wreg
    97  00009C  C001  FFD8         	movff	??_low_isr,status
    98  0000A0  0010               	retfie	
    99  0000A2                     __end_of_low_isr:
   100                           	opt stack 0
   101                           pclatu	equ	0xFFB
   102                           pclath	equ	0xFFA
   103                           tblptru	equ	0xFF8
   104                           tblptrh	equ	0xFF7
   105                           tblptrl	equ	0xFF6
   106                           tablat	equ	0xFF5
   107                           prodh	equ	0xFF4
   108                           prodl	equ	0xFF3
   109                           fsr0h	equ	0xFEA
   110                           fsr0l	equ	0xFE9
   111                           wreg	equ	0xFE8
   112                           fsr1h	equ	0xFE2
   113                           fsr1l	equ	0xFE1
   114                           bsr	equ	0xFE0
   115                           fsr2h	equ	0xFDA
   116                           fsr2l	equ	0xFD9
   117                           status	equ	0xFD8
   118                           
   119                           	psect	cinit
   120  00014E                     __pcinit:
   121                           	opt stack 0
   122  00014E                     start_initialization:
   123                           	opt stack 0
   124  00014E                     __initialization:
   125                           	opt stack 0
   126                           
   127                           ; Clear objects allocated to COMRAM (10 bytes)
   128  00014E  EE00  F020         	lfsr	0,__pbssCOMRAM
   129  000152  0E0A               	movlw	10
   130  000154                     clear_0:
   131  000154  6AEE               	clrf	postinc0,c
   132  000156  06E8               	decf	wreg,f,c
   133  000158  E1FD               	bnz	clear_0
   134  00015A                     end_of_initialization:
   135                           	opt stack 0
   136  00015A                     __end_of__initialization:
   137                           	opt stack 0
   138  00015A  0100               	movlb	0
   139  00015C  EFB0  F000         	goto	_main	;jump to C main() function
   140                           pclatu	equ	0xFFB
   141                           pclath	equ	0xFFA
   142                           tblptru	equ	0xFF8
   143                           tblptrh	equ	0xFF7
   144                           tblptrl	equ	0xFF6
   145                           tablat	equ	0xFF5
   146                           prodh	equ	0xFF4
   147                           prodl	equ	0xFF3
   148                           postinc0	equ	0xFEE
   149                           fsr0h	equ	0xFEA
   150                           fsr0l	equ	0xFE9
   151                           wreg	equ	0xFE8
   152                           fsr1h	equ	0xFE2
   153                           fsr1l	equ	0xFE1
   154                           bsr	equ	0xFE0
   155                           fsr2h	equ	0xFDA
   156                           fsr2l	equ	0xFD9
   157                           status	equ	0xFD8
   158                           
   159                           	psect	bssCOMRAM
   160  000020                     __pbssCOMRAM:
   161                           	opt stack 0
   162  000020                     _chronoSecondes_:
   163                           	opt stack 0
   164  000020                     	ds	2
   165  000022                     _etatFonctionnementCourant_:
   166                           	opt stack 0
   167  000022                     	ds	2
   168  000024                     _lectureAN_:
   169                           	opt stack 0
   170  000024                     	ds	2
   171  000026                     _resultatConversionAN_:
   172                           	opt stack 0
   173  000026                     	ds	2
   174  000028                     _valeurPwm_:
   175                           	opt stack 0
   176  000028                     	ds	2
   177                           pclatu	equ	0xFFB
   178                           pclath	equ	0xFFA
   179                           tblptru	equ	0xFF8
   180                           tblptrh	equ	0xFF7
   181                           tblptrl	equ	0xFF6
   182                           tablat	equ	0xFF5
   183                           prodh	equ	0xFF4
   184                           prodl	equ	0xFF3
   185                           postinc0	equ	0xFEE
   186                           fsr0h	equ	0xFEA
   187                           fsr0l	equ	0xFE9
   188                           wreg	equ	0xFE8
   189                           fsr1h	equ	0xFE2
   190                           fsr1l	equ	0xFE1
   191                           bsr	equ	0xFE0
   192                           fsr2h	equ	0xFDA
   193                           fsr2l	equ	0xFD9
   194                           status	equ	0xFD8
   195                           
   196                           	psect	cstackCOMRAM
   197  000001                     __pcstackCOMRAM:
   198                           	opt stack 0
   199  000001                     ??_low_isr:
   200                           
   201                           ; 0 bytes @ 0x0
   202  000001                     	ds	17
   203  000012                     ??_high_isr:
   204                           
   205                           ; 0 bytes @ 0x11
   206  000012                     	ds	14
   207  000020                     pclatu	equ	0xFFB
   208                           pclath	equ	0xFFA
   209                           tblptru	equ	0xFF8
   210                           tblptrh	equ	0xFF7
   211                           tblptrl	equ	0xFF6
   212                           tablat	equ	0xFF5
   213                           prodh	equ	0xFF4
   214                           prodl	equ	0xFF3
   215                           postinc0	equ	0xFEE
   216                           fsr0h	equ	0xFEA
   217                           fsr0l	equ	0xFE9
   218                           wreg	equ	0xFE8
   219                           fsr1h	equ	0xFE2
   220                           fsr1l	equ	0xFE1
   221                           bsr	equ	0xFE0
   222                           fsr2h	equ	0xFDA
   223                           fsr2l	equ	0xFD9
   224                           status	equ	0xFD8
   225                           
   226                           ; 0 bytes @ 0x1F
   227 ;;
   228 ;;Main: autosize = 0, tempsize = 0, incstack = 0, save=0
   229 ;;
   230 ;; *************** function _main *****************
   231 ;; Defined at:
   232 ;;		line 20 in file "main.c"
   233 ;; Parameters:    Size  Location     Type
   234 ;;		None
   235 ;; Auto vars:     Size  Location     Type
   236 ;;  i               2    0        int 
   237 ;; Return value:  Size  Location     Type
   238 ;;		None               void
   239 ;; Registers used:
   240 ;;		wreg, fsr0l, fsr0h, fsr1l, fsr1h, fsr1l, fsr1h, fsr2l, fsr2h, status,2, status,0, pclat, btemp, btemp+1, btemp+2, bt
      +emp+3, btemp+4, btemp+5, btemp+6, btemp+7, tosl, structret, tblptrl, tblptrh, tblptru, prodl, prodh, bsr, cstack
   241 ;; Tracked objects:
   242 ;;		On entry : 0/0
   243 ;;		On exit  : 0/0
   244 ;;		Unchanged: 0/0
   245 ;; Data sizes:     COMRAM   BANK0   BANK1   BANK2   BANK3   BANK4   BANK5
   246 ;;      Params:         0       0       0       0       0       0       0
   247 ;;      Locals:         0       0       0       0       0       0       0
   248 ;;      Temps:          0       0       0       0       0       0       0
   249 ;;      Totals:         0       0       0       0       0       0       0
   250 ;;Total ram usage:        0 bytes
   251 ;; Hardware stack levels required when called:    3
   252 ;; This function calls:
   253 ;;		_initialisation
   254 ;; This function is called by:
   255 ;;		Startup code after reset
   256 ;; This function uses a non-reentrant model
   257 ;;
   258                           
   259                           	psect	text0
   260  000160                     __ptext0:
   261                           	opt stack 0
   262  000160                     _main:
   263                           	opt stack 28
   264                           
   265                           ;main.c: 21: int i;
   266                           ;main.c: 23: initialisation();
   267                           
   268                           ;incstack = 0
   269                           ;incstack = 0
   270  000160  EC91  F000         	call	_initialisation	;wreg free
   271                           
   272                           ;main.c: 24: PORTD = 0xC1;
   273  000164  0EC1               	movlw	193
   274  000166  6E83               	movwf	3971,c	;volatile
   275  000168                     l23:
   276                           
   277                           ;main.c: 27: {
   278  000168  D7FF               	goto	l23
   279  00016A                     __end_of_main:
   280                           	opt stack 0
   281                           pclatu	equ	0xFFB
   282                           pclath	equ	0xFFA
   283                           tblptru	equ	0xFF8
   284                           tblptrh	equ	0xFF7
   285                           tblptrl	equ	0xFF6
   286                           tablat	equ	0xFF5
   287                           prodh	equ	0xFF4
   288                           prodl	equ	0xFF3
   289                           postinc0	equ	0xFEE
   290                           fsr0h	equ	0xFEA
   291                           fsr0l	equ	0xFE9
   292                           wreg	equ	0xFE8
   293                           fsr1h	equ	0xFE2
   294                           fsr1l	equ	0xFE1
   295                           bsr	equ	0xFE0
   296                           fsr2h	equ	0xFDA
   297                           fsr2l	equ	0xFD9
   298                           status	equ	0xFD8
   299                           
   300 ;; *************** function _initialisation *****************
   301 ;; Defined at:
   302 ;;		line 36 in file "main.c"
   303 ;; Parameters:    Size  Location     Type
   304 ;;		None
   305 ;; Auto vars:     Size  Location     Type
   306 ;;		None
   307 ;; Return value:  Size  Location     Type
   308 ;;		None               void
   309 ;; Registers used:
   310 ;;		wreg, status,2
   311 ;; Tracked objects:
   312 ;;		On entry : 0/0
   313 ;;		On exit  : 0/0
   314 ;;		Unchanged: 0/0
   315 ;; Data sizes:     COMRAM   BANK0   BANK1   BANK2   BANK3   BANK4   BANK5
   316 ;;      Params:         0       0       0       0       0       0       0
   317 ;;      Locals:         0       0       0       0       0       0       0
   318 ;;      Temps:          0       0       0       0       0       0       0
   319 ;;      Totals:         0       0       0       0       0       0       0
   320 ;;Total ram usage:        0 bytes
   321 ;; Hardware stack levels used:    1
   322 ;; Hardware stack levels required when called:    2
   323 ;; This function calls:
   324 ;;		Nothing
   325 ;; This function is called by:
   326 ;;		_main
   327 ;; This function uses a non-reentrant model
   328 ;;
   329                           
   330                           	psect	text1
   331  000122                     __ptext1:
   332                           	opt stack 0
   333  000122                     _initialisation:
   334                           	opt stack 28
   335                           
   336                           ;main.c: 38: TRISD = 0;
   337                           
   338                           ;incstack = 0
   339                           ;incstack = 0
   340  000122  0E00               	movlw	0
   341  000124  6E95               	movwf	3989,c	;volatile
   342                           
   343                           ;main.c: 40: ANSELH = 0;
   344  000126  0E00               	movlw	0
   345  000128  6E7F               	movwf	3967,c	;volatile
   346                           
   347                           ;main.c: 41: TRISBbits.RB0 = 1;
   348  00012A  8093               	bsf	3987,0,c	;volatile
   349                           
   350                           ;main.c: 48: T0CONbits.TMR0ON = 1;
   351  00012C  8ED5               	bsf	4053,7,c	;volatile
   352                           
   353                           ;main.c: 49: T0CONbits.T08BIT = 0;
   354  00012E  9CD5               	bcf	4053,6,c	;volatile
   355                           
   356                           ;main.c: 50: T0CONbits.T0CS = 0;
   357  000130  9AD5               	bcf	4053,5,c	;volatile
   358                           
   359                           ;main.c: 51: T0CONbits.PSA = 0;
   360  000132  96D5               	bcf	4053,3,c	;volatile
   361                           
   362                           ;main.c: 52: T0CONbits.T0PS = 0b011;
   363  000134  50D5               	movf	4053,w,c	;volatile
   364  000136  0BF8               	andlw	-8
   365  000138  0903               	iorlw	3
   366  00013A  6ED5               	movwf	4053,c	;volatile
   367                           
   368                           ;main.c: 62: TMR0L = 0xF6;
   369  00013C  0EF6               	movlw	246
   370  00013E  6ED6               	movwf	4054,c	;volatile
   371                           
   372                           ;main.c: 63: TMR0H = 0xC2;
   373  000140  0EC2               	movlw	194
   374  000142  6ED7               	movwf	4055,c	;volatile
   375                           
   376                           ;main.c: 66: INTCONbits.TMR0IE = 1;
   377  000144  8AF2               	bsf	intcon,5,c	;volatile
   378                           
   379                           ;main.c: 67: INTCONbits.TMR0IF = 0;
   380  000146  94F2               	bcf	intcon,2,c	;volatile
   381                           
   382                           ;main.c: 70: INTCONbits.PEIE = 1;
   383  000148  8CF2               	bsf	intcon,6,c	;volatile
   384                           
   385                           ;main.c: 71: INTCONbits.GIE = 1;
   386  00014A  8EF2               	bsf	intcon,7,c	;volatile
   387  00014C  0012               	return	
   388  00014E                     __end_of_initialisation:
   389                           	opt stack 0
   390                           pclatu	equ	0xFFB
   391                           pclath	equ	0xFFA
   392                           tblptru	equ	0xFF8
   393                           tblptrh	equ	0xFF7
   394                           tblptrl	equ	0xFF6
   395                           tablat	equ	0xFF5
   396                           prodh	equ	0xFF4
   397                           prodl	equ	0xFF3
   398                           intcon	equ	0xFF2
   399                           postinc0	equ	0xFEE
   400                           fsr0h	equ	0xFEA
   401                           fsr0l	equ	0xFE9
   402                           wreg	equ	0xFE8
   403                           fsr1h	equ	0xFE2
   404                           fsr1l	equ	0xFE1
   405                           bsr	equ	0xFE0
   406                           fsr2h	equ	0xFDA
   407                           fsr2l	equ	0xFD9
   408                           status	equ	0xFD8
   409                           
   410 ;; *************** function _high_isr *****************
   411 ;; Defined at:
   412 ;;		line 21 in file "interrupts.c"
   413 ;; Parameters:    Size  Location     Type
   414 ;;		None
   415 ;; Auto vars:     Size  Location     Type
   416 ;;		None
   417 ;; Return value:  Size  Location     Type
   418 ;;		None               void
   419 ;; Registers used:
   420 ;;		wreg, status,2, status,0
   421 ;; Tracked objects:
   422 ;;		On entry : 0/0
   423 ;;		On exit  : 0/0
   424 ;;		Unchanged: 0/0
   425 ;; Data sizes:     COMRAM   BANK0   BANK1   BANK2   BANK3   BANK4   BANK5
   426 ;;      Params:         0       0       0       0       0       0       0
   427 ;;      Locals:         0       0       0       0       0       0       0
   428 ;;      Temps:         14       0       0       0       0       0       0
   429 ;;      Totals:        14       0       0       0       0       0       0
   430 ;;Total ram usage:       14 bytes
   431 ;; Hardware stack levels used:    1
   432 ;; This function calls:
   433 ;;		Nothing
   434 ;; This function is called by:
   435 ;;		Interrupt level 2
   436 ;; This function uses a non-reentrant model
   437 ;;
   438                           
   439                           	psect	intcode
   440  000008                     __pintcode:
   441                           	opt stack 0
   442  000008                     _high_isr:
   443                           	opt stack 28
   444                           
   445                           ;incstack = 0
   446  000008  CFFA F012          	movff	pclath,??_high_isr
   447  00000C  CFFB F013          	movff	pclatu,??_high_isr+1
   448  000010  CFE9 F014          	movff	fsr0l,??_high_isr+2
   449  000014  EF53  F000         	goto	int_func
   450                           pclatu	equ	0xFFB
   451                           pclath	equ	0xFFA
   452                           tblptru	equ	0xFF8
   453                           tblptrh	equ	0xFF7
   454                           tblptrl	equ	0xFF6
   455                           tablat	equ	0xFF5
   456                           prodh	equ	0xFF4
   457                           prodl	equ	0xFF3
   458                           intcon	equ	0xFF2
   459                           postinc0	equ	0xFEE
   460                           fsr0h	equ	0xFEA
   461                           fsr0l	equ	0xFE9
   462                           wreg	equ	0xFE8
   463                           fsr1h	equ	0xFE2
   464                           fsr1l	equ	0xFE1
   465                           bsr	equ	0xFE0
   466                           fsr2h	equ	0xFDA
   467                           fsr2l	equ	0xFD9
   468                           status	equ	0xFD8
   469                           
   470                           	psect	intcode_body
   471  0000A6                     __pintcode_body:
   472                           	opt stack 28
   473  0000A6                     int_func:
   474                           	opt stack 28
   475  0000A6  CFEA F015          	movff	fsr0h,??_high_isr+3
   476  0000AA  CFE1 F016          	movff	fsr1l,??_high_isr+4
   477  0000AE  CFE2 F017          	movff	fsr1h,??_high_isr+5
   478  0000B2  CFD9 F018          	movff	fsr2l,??_high_isr+6
   479  0000B6  CFDA F019          	movff	fsr2h,??_high_isr+7
   480  0000BA  CFF3 F01A          	movff	prodl,??_high_isr+8
   481  0000BE  CFF4 F01B          	movff	prodh,??_high_isr+9
   482  0000C2  CFF6 F01C          	movff	tblptrl,??_high_isr+10
   483  0000C6  CFF7 F01D          	movff	tblptrh,??_high_isr+11
   484  0000CA  CFF8 F01E          	movff	tblptru,??_high_isr+12
   485  0000CE  CFF5 F01F          	movff	tablat,??_high_isr+13
   486  0000D2                     
   487                           ;interrupts.c: 25: if (INTCONbits.TMR0IF)
   488  0000D2  A4F2               	btfss	intcon,2,c	;volatile
   489  0000D4  D001               	goto	i2u1_41
   490  0000D6  D001               	goto	i2u1_40
   491  0000D8                     i2u1_41:
   492  0000D8  D007               	goto	i2l43
   493  0000DA                     i2u1_40:
   494  0000DA                     
   495                           ;interrupts.c: 26: {
   496                           ;interrupts.c: 27: INTCONbits.TMR0IF = 0;
   497  0000DA  94F2               	bcf	intcon,2,c	;volatile
   498  0000DC                     
   499                           ;interrupts.c: 28: TMR0L = 0xF6;
   500  0000DC  0EF6               	movlw	246
   501  0000DE  6ED6               	movwf	4054,c	;volatile
   502                           
   503                           ;interrupts.c: 29: TMR0H = 0xC2;
   504  0000E0  0EC2               	movlw	194
   505  0000E2  6ED7               	movwf	4055,c	;volatile
   506  0000E4                     
   507                           ;interrupts.c: 30: PORTDbits.RD0 ^= 1;
   508  0000E4  7083               	btg	3971,0,c	;volatile
   509  0000E6  D000               	goto	i2l43
   510  0000E8                     i2l43:
   511  0000E8  C01F  FFF5         	movff	??_high_isr+13,tablat
   512  0000EC  C01E  FFF8         	movff	??_high_isr+12,tblptru
   513  0000F0  C01D  FFF7         	movff	??_high_isr+11,tblptrh
   514  0000F4  C01C  FFF6         	movff	??_high_isr+10,tblptrl
   515  0000F8  C01B  FFF4         	movff	??_high_isr+9,prodh
   516  0000FC  C01A  FFF3         	movff	??_high_isr+8,prodl
   517  000100  C019  FFDA         	movff	??_high_isr+7,fsr2h
   518  000104  C018  FFD9         	movff	??_high_isr+6,fsr2l
   519  000108  C017  FFE2         	movff	??_high_isr+5,fsr1h
   520  00010C  C016  FFE1         	movff	??_high_isr+4,fsr1l
   521  000110  C015  FFEA         	movff	??_high_isr+3,fsr0h
   522  000114  C014  FFE9         	movff	??_high_isr+2,fsr0l
   523  000118  C013  FFFB         	movff	??_high_isr+1,pclatu
   524  00011C  C012  FFFA         	movff	??_high_isr,pclath
   525  000120  0011               	retfie		f
   526  000122                     __end_of_high_isr:
   527                           	opt stack 0
   528  0000                     pclatu	equ	0xFFB
   529                           pclath	equ	0xFFA
   530                           tblptru	equ	0xFF8
   531                           tblptrh	equ	0xFF7
   532                           tblptrl	equ	0xFF6
   533                           tablat	equ	0xFF5
   534                           prodh	equ	0xFF4
   535                           prodl	equ	0xFF3
   536                           intcon	equ	0xFF2
   537                           postinc0	equ	0xFEE
   538                           fsr0h	equ	0xFEA
   539                           fsr0l	equ	0xFE9
   540                           wreg	equ	0xFE8
   541                           fsr1h	equ	0xFE2
   542                           fsr1l	equ	0xFE1
   543                           bsr	equ	0xFE0
   544                           fsr2h	equ	0xFDA
   545                           fsr2l	equ	0xFD9
   546                           status	equ	0xFD8
   547                           pclatu	equ	0xFFB
   548                           pclath	equ	0xFFA
   549                           tblptru	equ	0xFF8
   550                           tblptrh	equ	0xFF7
   551                           tblptrl	equ	0xFF6
   552                           tablat	equ	0xFF5
   553                           prodh	equ	0xFF4
   554                           prodl	equ	0xFF3
   555                           intcon	equ	0xFF2
   556                           postinc0	equ	0xFEE
   557                           fsr0h	equ	0xFEA
   558                           fsr0l	equ	0xFE9
   559                           wreg	equ	0xFE8
   560                           fsr1h	equ	0xFE2
   561                           fsr1l	equ	0xFE1
   562                           bsr	equ	0xFE0
   563                           fsr2h	equ	0xFDA
   564                           fsr2l	equ	0xFD9
   565                           status	equ	0xFD8
   566                           
   567                           	psect	rparam
   568  0000                     pclatu	equ	0xFFB
   569                           pclath	equ	0xFFA
   570                           tblptru	equ	0xFF8
   571                           tblptrh	equ	0xFF7
   572                           tblptrl	equ	0xFF6
   573                           tablat	equ	0xFF5
   574                           prodh	equ	0xFF4
   575                           prodl	equ	0xFF3
   576                           intcon	equ	0xFF2
   577                           postinc0	equ	0xFEE
   578                           fsr0h	equ	0xFEA
   579                           fsr0l	equ	0xFE9
   580                           wreg	equ	0xFE8
   581                           fsr1h	equ	0xFE2
   582                           fsr1l	equ	0xFE1
   583                           bsr	equ	0xFE0
   584                           fsr2h	equ	0xFDA
   585                           fsr2l	equ	0xFD9
   586                           status	equ	0xFD8


Data Sizes:
    Strings     0
    Constant    0
    Data        0
    BSS         10
    Persistent  0
    Stack       0

Auto Spaces:
    Space          Size  Autos    Used
    COMRAM           95     31      41
    BANK0           160      0       0
    BANK1           256      0       0
    BANK2           256      0       0
    BANK3           256      0       0
    BANK4           256      0       0
    BANK5           256      0       0

Pointer List with Targets:

    None.

Critical Paths under _main in COMRAM

    None.

Critical Paths under _high_isr in COMRAM

    None.

Critical Paths under _main in BANK0

    None.

Critical Paths under _high_isr in BANK0

    None.

Critical Paths under _main in BANK1

    None.

Critical Paths under _high_isr in BANK1

    None.

Critical Paths under _main in BANK2

    None.

Critical Paths under _high_isr in BANK2

    None.

Critical Paths under _main in BANK3

    None.

Critical Paths under _high_isr in BANK3

    None.

Critical Paths under _main in BANK4

    None.

Critical Paths under _high_isr in BANK4

    None.

Critical Paths under _main in BANK5

    None.

Critical Paths under _high_isr in BANK5

    None.

Call Graph Tables:

 ---------------------------------------------------------------------------------
 (Depth) Function   	        Calls       Base Space   Used Autos Params    Refs
 ---------------------------------------------------------------------------------
 (0) _main                                                 2     2      0       0
                     _initialisation
 ---------------------------------------------------------------------------------
 (1) _initialisation                                       0     0      0       0
 ---------------------------------------------------------------------------------
 Estimated maximum stack depth 1
 ---------------------------------------------------------------------------------
 (Depth) Function   	        Calls       Base Space   Used Autos Params    Refs
 ---------------------------------------------------------------------------------
 (2) _low_isr                                             17    17      0       0
                                              0 COMRAM    17    17      0
 ---------------------------------------------------------------------------------
 (3) _high_isr                                            14    14      0       0
                                             17 COMRAM    14    14      0
 ---------------------------------------------------------------------------------
 Estimated maximum stack depth 3
 ---------------------------------------------------------------------------------

 Call Graph Graphs:

 _main (ROOT)
   _initialisation

 _low_isr (ROOT)

 Address spaces:
Name               Size   Autos  Total    Cost      Usage
BIGRAM             5FF      0       0      17        0.0%
EEDATA             100      0       0       0        0.0%
BITBANK5           100      0       0      16        0.0%
BANK5              100      0       0      14        0.0%
BITBANK4           100      0       0      12        0.0%
BANK4              100      0       0      13        0.0%
BITBANK3           100      0       0      10        0.0%
BANK3              100      0       0      11        0.0%
BITBANK2           100      0       0       8        0.0%
BANK2              100      0       0       9        0.0%
BITBANK1           100      0       0       6        0.0%
BANK1              100      0       0       7        0.0%
BITBANK0            A0      0       0       4        0.0%
BANK0               A0      0       0       5        0.0%
BITCOMRAM           5F      0       0       0        0.0%
COMRAM              5F     1F      29       1       43.2%
BITSFR               0      0       0      40        0.0%
SFR                  0      0       0      40        0.0%
STACK                0      0       1       2        0.0%
NULL                 0      0       0       0        0.0%
ABS                  0      0      29      15        0.0%
DATA                 0      0      2A       3        0.0%
CODE                 0      0       0       0        0.0%


Microchip Technology PIC18 Macro Assembler V1.20 build 52243 
Symbol Table                                                                                   Thu Feb 19 09:29:18 2015

                        l23 0168                          bsr 000FE0                __CFG_CP0$OFF 000000  
              __CFG_CP1$OFF 000000                __CFG_CP2$OFF 000000                __CFG_CP3$OFF 000000  
              __CFG_CPB$OFF 000000                __CFG_CPD$OFF 000000                __CFG_BORV$18 000000  
                       wreg 000FE8                __CFG_LVP$OFF 000000                        i1l46 005C  
                      i2l42 00E8                        i2l43 00E8            ??_initialisation 0020  
                      _main 0160                        fsr0h 000FEA                        fsr1h 000FE2  
                      fsr0l 000FE9                        fsr2h 000FDA                        fsr1l 000FE1  
                      fsr2l 000FD9                        pclat 000FFA                        prodh 000FF4  
                      prodl 000FF3                        start 00A2               __CFG_IESO$OFF 000000  
             __CFG_MCLRE$ON 000000                       ?_main 0001                       i2l680 00DC  
                     i2l682 00E4                       i2l676 00D2                       i2l678 00DA  
                     _TMR0H 000FD7                       _TMR0L 000FD6                       _PORTD 000F83  
                     _TRISD 000F95               __CFG_PWRT$OFF 000000               __CFG_WRT0$OFF 000000  
             __CFG_WRT1$OFF 000000               __CFG_WRT2$OFF 000000               __CFG_WRT3$OFF 000000  
            __CFG_EBTR0$OFF 000000              __CFG_FCMEN$OFF 000000              __CFG_EBTR1$OFF 000000  
            __CFG_EBTR2$OFF 000000              __CFG_EBTR3$OFF 000000               __CFG_WRTB$OFF 000000  
             __CFG_WRTC$OFF 000000               __CFG_WRTD$OFF 000000              __CFG_EBTRB$OFF 000000  
           __end_of_low_isr 00A2                       tablat 000FF5                       status 000FD8  
            __CFG_HFOFST$ON 000000              __CFG_PBADEN$ON 000000             __initialization 014E  
              __end_of_main 016A                      ??_main 0020               __activetblptr 000000  
                    _ANSELH 000F7F  _etatFonctionnementCourant_ 0022              __CFG_WDTEN$OFF 000000  
                    i2u1_40 00DA                      i2u1_41 00D8              __CFG_XINST$OFF 000000  
          __end_of_high_isr 0122              __CFG_STVREN$ON 000000                      clear_0 0154  
                 ??_low_isr 0001                      tblptrh 000FF7                      tblptrl 000FF6  
                    tblptru 000FF8                  __accesstop 0060     __end_of__initialization 015A  
            __pcstackCOMRAM 0001                   ?_high_isr 0001                     __Hparam 0000  
                _lectureAN_ 0024                     __Lparam 0000                     __pcinit 014E  
                   __ramtop 0600                     __ptext0 0160                     __ptext1 0122  
           _chronoSecondes_ 0020                   _T0CONbits 000FD5                     _low_isr 0018  
                ??_high_isr 0012              __pintcode_body 00A6        end_of_initialization 015A  
                   int_func 00A6                  _valeurPwm_ 0028                     postinc0 000FEE  
   __size_of_initialisation 002C                   _PORTDbits 000F83                   _TRISBbits 000F93  
       start_initialization 014E       _resultatConversionAN_ 0026            __CFG_LPT1OSC$OFF 000000  
               __pbssCOMRAM 0020           __size_of_high_isr 011A           __CFG_CCP2MX$PORTC 000000  
                 __pintcode 0008              _initialisation 0122                 __pintcodelo 0018  
                  ?_low_isr 0001      __end_of_initialisation 014E            __CFG_WDTPS$32768 000000  
                  __Hrparam 0000             ?_initialisation 0001                    __Lrparam 0000  
        __CFG_BOREN$SBORDIS 000000            __size_of_low_isr 008A                    _high_isr 0008  
             __size_of_main 000A                  _INTCONbits 000FF2                    intlevel1 0000  
                  intlevel2 0000           __CFG_FOSC$INTIO67 000000  
