

Microchip MPLAB XC8 Assembler V2.10 build 88905656 
                                                                                               Wed Apr 29 10:36:59 2020

Microchip MPLAB XC8 C Compiler v2.10 (Free license) build 20190730164152 Og1 
     1                           	processor	18F458
     2                           	fnconf	param0,??,?,0
     3                           	opt	pw 120
     4                           	opt	flic
     5                           	psect	cinit,global,reloc=2,class=CODE,delta=1,minocg
     6                           	psect	bssBANK0,global,class=BANK0,space=1,delta=1,lowdata,noexec,minocg
     7                           	psect	cstackBANK0,global,class=BANK0,space=1,delta=1,noexec,minocg
     8                           	psect	text0,global,reloc=2,class=CODE,delta=1,minocg
     9                           	psect	text1,global,reloc=2,class=CODE,delta=1,minocg
    10                           	psect	text2,global,reloc=2,class=CODE,delta=1,group=1,minocg
    11                           	psect	text3,global,reloc=2,class=CODE,delta=1,minocg
    12                           	psect	text4,global,reloc=2,class=CODE,delta=1,group=1,minocg
    13                           	psect	text5,global,reloc=2,class=CODE,delta=1,minocg
    14                           	psect	text6,global,reloc=2,class=CODE,delta=1,minocg
    15                           	psect	text7,global,reloc=2,class=CODE,delta=1,minocg
    16                           	psect	text8,global,reloc=2,class=CODE,delta=1,minocg
    17                           	psect	text9,global,reloc=2,class=CODE,delta=1,minocg
    18                           	psect	text10,global,reloc=2,class=CODE,delta=1,minocg
    19                           	psect	text11,global,reloc=2,class=CODE,delta=1,minocg
    20                           	psect	intsave_regs,global,class=BIGRAM,space=1,delta=1,noexec
    21                           	psect	param0,global,class=BANK0,space=1,delta=1,noexec
    22  0000                     
    23                           ; Version 2.10
    24                           ; Generated 31/07/2019 GMT
    25                           ; 
    26                           ; Copyright © 2019, Microchip Technology Inc. and its subsidiaries ("Microchip")
    27                           ; All rights reserved.
    28                           ; 
    29                           ; This software is developed by Microchip Technology Inc. and its subsidiaries ("Microch
      +                          ip").
    30                           ; 
    31                           ; Redistribution and use in source and binary forms, with or without modification, are
    32                           ; permitted provided that the following conditions are met:
    33                           ; 
    34                           ;     1. Redistributions of source code must retain the above copyright notice, this lis
      +                          t of
    35                           ;        conditions and the following disclaimer.
    36                           ; 
    37                           ;     2. Redistributions in binary form must reproduce the above copyright notice, this 
      +                          list
    38                           ;        of conditions and the following disclaimer in the documentation and/or other
    39                           ;        materials provided with the distribution.
    40                           ; 
    41                           ;     3. Microchip's name may not be used to endorse or promote products derived from th
      +                          is
    42                           ;        software without specific prior written permission.
    43                           ; 
    44                           ; THIS SOFTWARE IS PROVIDED BY MICROCHIP "AS IS" AND ANY EXPRESS OR IMPLIED WARRANTIES,
    45                           ; INCLUDING, BUT NOT LIMITED TO, THE IMPLIED WARRANTIES OF MERCHANTABILITY AND FITNESS F
      +                          OR
    46                           ; PURPOSE ARE DISCLAIMED.  IN NO EVENT SHALL MICROCHIP BE LIABLE FOR ANY DIRECT, INDIREC
      +                          T,
    47                           ; INCIDENTAL, SPECIAL, EXEMPLARY, OR CONSEQUENTIAL DAMAGES (INCLUDING BUT NOT LIMITED TO
    48                           ; PROCUREMENT OF SUBSTITUTE GOODS OR SERVICES; LOSS OF USE, DATA OR PROFITS; OR BUSINESS
    49                           ; INTERRUPTION) HOWSOEVER CAUSED AND ON ANY THEORY OF LIABILITY, WHETHER IN CONTRACT, ST
      +                          RICT
    50                           ; LIABILITY, OR TORT (INCLUDING NEGLIGENCE OR OTHERWISE) ARISING IN ANY WAY OUT OF THE U
      +                          SE OF
    51                           ; THIS SOFTWARE, EVEN IF ADVISED OF THE POSSIBILITY OF SUCH DAMAGE.
    52                           ; 
    53                           ; 
    54                           ; Code-generator required, PIC18F458 Definitions
    55                           ; 
    56                           ; SFR Addresses
    57  0000                     _PORTDbits	set	3971
    58  0000                     _TRISD	set	3989
    59  0000                     _TXSTAbits	set	4012
    60  0000                     _SPBRG	set	4015
    61  0000                     _RCREG	set	4014
    62  0000                     _PIR1bits	set	3998
    63  0000                     _RCSTAbits	set	4011
    64                           
    65                           ; #config settings
    66  0000                     
    67                           	psect	cinit
    68  003372                     __pcinit:
    69                           	opt callstack 0
    70  003372                     start_initialization:
    71                           	opt callstack 0
    72  003372                     __initialization:
    73                           	opt callstack 0
    74                           
    75                           ; Clear objects allocated to BANK0 (42 bytes)
    76  003372  EE00  F060         	lfsr	0,__pbssBANK0
    77  003376  0E2A               	movlw	42
    78  003378                     clear_0:
    79  003378  6AEE               	clrf	postinc0,c
    80  00337A  06E8               	decf	wreg,f,c
    81  00337C  E1FD               	bnz	clear_0
    82  00337E                     end_of_initialization:
    83                           	opt callstack 0
    84  00337E                     __end_of__initialization:
    85                           	opt callstack 0
    86  00337E  0100               	movlb	0
    87  003380  EFEF  F019         	goto	_main	;jump to C main() function
    88                           
    89                           	psect	bssBANK0
    90  000060                     __pbssBANK0:
    91                           	opt callstack 0
    92  000060                     _NeoRed:
    93                           	opt callstack 0
    94  000060                     	ds	12
    95  00006C                     _NeoBlue:
    96                           	opt callstack 0
    97  00006C                     	ds	12
    98  000078                     _NeoGreen:
    99                           	opt callstack 0
   100  000078                     	ds	12
   101  000084                     NeoWave@couleur:
   102                           	opt callstack 0
   103  000084                     	ds	2
   104  000086                     	ds	2
   105  000088                     rxTrame@indexTrame:
   106                           	opt callstack 0
   107  000088                     	ds	2
   108                           
   109                           	psect	cstackBANK0
   110  00008A                     __pcstackBANK0:
   111                           	opt callstack 0
   112  00008A                     ?___awdiv:
   113                           	opt callstack 0
   114  00008A                     ?___awmod:
   115                           	opt callstack 0
   116  00008A                     NeoSetColor@G:
   117                           	opt callstack 0
   118  00008A                     NeoInit@NeoPixel:
   119                           	opt callstack 0
   120  00008A                     NeoBit@Bit:
   121                           	opt callstack 0
   122  00008A                     NeoRotate@R:
   123                           	opt callstack 0
   124  00008A                     rxTrame@buffer:
   125                           	opt callstack 0
   126  00008A                     ___awdiv@dividend:
   127                           	opt callstack 0
   128  00008A                     ___awmod@dividend:
   129                           	opt callstack 0
   130                           
   131                           ; 2 bytes @ 0x0
   132  00008A                     	ds	1
   133  00008B                     ??_NeoDraw:
   134  00008B                     NeoSetColor@B:
   135                           	opt callstack 0
   136  00008B                     NeoRotate@G:
   137                           	opt callstack 0
   138                           
   139                           ; 1 bytes @ 0x1
   140  00008B                     	ds	1
   141  00008C                     ??_rxTrame:
   142  00008C                     NeoSetColor@R:
   143                           	opt callstack 0
   144  00008C                     NeoRotate@B:
   145                           	opt callstack 0
   146  00008C                     ___awdiv@divisor:
   147                           	opt callstack 0
   148  00008C                     ___awmod@divisor:
   149                           	opt callstack 0
   150                           
   151                           ; 2 bytes @ 0x2
   152  00008C                     	ds	1
   153  00008D                     NeoRotate@NeoPixel:
   154                           	opt callstack 0
   155  00008D                     NeoSetColor@i:
   156                           	opt callstack 0
   157                           
   158                           ; 2 bytes @ 0x3
   159  00008D                     	ds	1
   160  00008E                     rxTrame@retour:
   161                           	opt callstack 0
   162  00008E                     NeoDraw@NeoPixel:
   163                           	opt callstack 0
   164  00008E                     ___awdiv@counter:
   165                           	opt callstack 0
   166  00008E                     ___awmod@counter:
   167                           	opt callstack 0
   168                           
   169                           ; 1 bytes @ 0x4
   170  00008E                     	ds	1
   171  00008F                     NeoDraw@BitCount:
   172                           	opt callstack 0
   173  00008F                     ___awdiv@sign:
   174                           	opt callstack 0
   175  00008F                     ___awmod@sign:
   176                           	opt callstack 0
   177  00008F                     rxTrame@i:
   178                           	opt callstack 0
   179                           
   180                           ; 2 bytes @ 0x5
   181  00008F                     	ds	1
   182  000090                     NeoWave@NeoPixel:
   183                           	opt callstack 0
   184  000090                     ___awdiv@quotient:
   185                           	opt callstack 0
   186                           
   187                           ; 2 bytes @ 0x6
   188  000090                     	ds	1
   189  000091                     rxTrame@c:
   190                           	opt callstack 0
   191                           
   192                           ; 1 bytes @ 0x7
   193  000091                     	ds	1
   194  000092                     rxTrame@chkSum:
   195                           	opt callstack 0
   196  000092                     traiteTrame@buffer:
   197                           	opt callstack 0
   198                           
   199                           ; 2 bytes @ 0x8
   200  000092                     	ds	2
   201  000094                     ??_traiteTrame:
   202                           
   203                           ; 1 bytes @ 0xA
   204  000094                     	ds	2
   205  000096                     traiteTrame@NeoR:
   206                           	opt callstack 0
   207                           
   208                           ; 1 bytes @ 0xC
   209  000096                     	ds	1
   210  000097                     traiteTrame@NeoG:
   211                           	opt callstack 0
   212                           
   213                           ; 1 bytes @ 0xD
   214  000097                     	ds	1
   215  000098                     traiteTrame@NeoB:
   216                           	opt callstack 0
   217                           
   218                           ; 1 bytes @ 0xE
   219  000098                     	ds	1
   220  000099                     main@trame:
   221                           	opt callstack 0
   222                           
   223                           ; 6 bytes @ 0xF
   224  000099                     	ds	6
   225                           
   226 ;;
   227 ;;Main: autosize = 0, tempsize = 0, incstack = 0, save=0
   228 ;;
   229 ;; *************** function _main *****************
   230 ;; Defined at:
   231 ;;		line 37 in file "main.c"
   232 ;; Parameters:    Size  Location     Type
   233 ;;		None
   234 ;; Auto vars:     Size  Location     Type
   235 ;;  trame           6   15[BANK0 ] unsigned char [6]
   236 ;; Return value:  Size  Location     Type
   237 ;;                  1    wreg      void 
   238 ;; Registers used:
   239 ;;		wreg, fsr1l, fsr1h, fsr2l, fsr2h, status,2, status,0, prodl, prodh, cstack
   240 ;; Tracked objects:
   241 ;;		On entry : 0/0
   242 ;;		On exit  : 0/0
   243 ;;		Unchanged: 0/0
   244 ;; Data sizes:     COMRAM   BANK0   BANK2   BANK3   BANK4   BANK1   BANK5
   245 ;;      Params:         0       0       0       0       0       0       0
   246 ;;      Locals:         0       6       0       0       0       0       0
   247 ;;      Temps:          0       0       0       0       0       0       0
   248 ;;      Totals:         0       6       0       0       0       0       0
   249 ;;Total ram usage:        6 bytes
   250 ;; Hardware stack levels required when called:    3
   251 ;; This function calls:
   252 ;;		_NeoDraw
   253 ;;		_NeoInit
   254 ;;		_initialisation
   255 ;;		_rxTrame
   256 ;;		_traiteTrame
   257 ;; This function is called by:
   258 ;;		Startup code after reset
   259 ;; This function uses a non-reentrant model
   260 ;;
   261                           
   262                           	psect	text0
   263  0033DE                     __ptext0:
   264                           	opt callstack 0
   265  0033DE                     _main:
   266                           	opt callstack 28
   267  0033DE  FFFF               	dw	65535	; assembler added errata NOP
   268                           
   269                           ;main.c: 40:     unsigned char trame[6];;main.c: 43:     initialisation();
   270  0033E0  ECC2  F019         	call	_initialisation	;wreg free
   271  0033E4                     
   272                           ;main.c: 45:     NeoInit();
   273  0033E4  ECBE  F01E         	call	_NeoInit	;wreg free
   274  0033E8                     
   275                           ;main.c: 46:     NeoDraw ();
   276  0033E8  EC38  F01C         	call	_NeoDraw	;wreg free
   277  0033EC                     l1366:
   278  0033EC  FFFF               	dw	65535	; assembler added errata NOP
   279                           
   280                           ;main.c: 49:     {;main.c: 52:       if (rxTrame(trame))
   281  0033EE  0E99               	movlw	low main@trame
   282  0033F0  0100               	movlb	0	; force () banked
   283  0033F2  6F8A               	movwf	rxTrame@buffer& (0+255),b
   284  0033F4  0E00               	movlw	high main@trame
   285  0033F6  6F8B               	movwf	(rxTrame@buffer+1)& (0+255),b
   286  0033F8  ECD2  F01D         	call	_rxTrame	;wreg free
   287  0033FC  0900               	iorlw	0
   288  0033FE  B4D8               	btfsc	status,2,c
   289  003400  EF04  F01A         	goto	u861
   290  003404  EF07  F01A         	goto	u860
   291  003408                     u861:
   292  003408  FFFF               	dw	65535	; assembler added errata NOP
   293  00340A  EFF6  F019         	goto	l1366
   294  00340E                     u860:
   295  00340E  FFFF               	dw	65535	; assembler added errata NOP
   296  003410                     
   297                           ;main.c: 53:       {;main.c: 54:           traiteTrame(trame);
   298  003410  0E99               	movlw	low main@trame
   299  003412  0100               	movlb	0	; force () banked
   300  003414  6F92               	movwf	traiteTrame@buffer& (0+255),b
   301  003416  0E00               	movlw	high main@trame
   302  003418  6F93               	movwf	(traiteTrame@buffer+1)& (0+255),b
   303  00341A  ECA0  F01B         	call	_traiteTrame	;wreg free
   304  00341E                     
   305                           ;main.c: 55:           NeoDraw ();
   306  00341E  EC38  F01C         	call	_NeoDraw	;wreg free
   307  003422  EFF6  F019         	goto	l1366
   308  003426  EF01  F000         	goto	start
   309  00342A                     __end_of_main:
   310                           	opt callstack 0
   311                           
   312 ;; *************** function _traiteTrame *****************
   313 ;; Defined at:
   314 ;;		line 124 in file "main.c"
   315 ;; Parameters:    Size  Location     Type
   316 ;;  buffer          2    8[BANK0 ] PTR unsigned char 
   317 ;;		 -> main@trame(6), 
   318 ;; Auto vars:     Size  Location     Type
   319 ;;  NeoB            1   14[BANK0 ] unsigned char 
   320 ;;  NeoG            1   13[BANK0 ] unsigned char 
   321 ;;  NeoR            1   12[BANK0 ] unsigned char 
   322 ;; Return value:  Size  Location     Type
   323 ;;                  1    wreg      void 
   324 ;; Registers used:
   325 ;;		wreg, fsr1l, fsr1h, fsr2l, fsr2h, status,2, status,0, prodl, prodh, cstack
   326 ;; Tracked objects:
   327 ;;		On entry : 0/0
   328 ;;		On exit  : 0/0
   329 ;;		Unchanged: 0/0
   330 ;; Data sizes:     COMRAM   BANK0   BANK2   BANK3   BANK4   BANK1   BANK5
   331 ;;      Params:         0       2       0       0       0       0       0
   332 ;;      Locals:         0       3       0       0       0       0       0
   333 ;;      Temps:          0       2       0       0       0       0       0
   334 ;;      Totals:         0       7       0       0       0       0       0
   335 ;;Total ram usage:        7 bytes
   336 ;; Hardware stack levels used:    1
   337 ;; Hardware stack levels required when called:    2
   338 ;; This function calls:
   339 ;;		_NeoInit
   340 ;;		_NeoRotate
   341 ;;		_NeoSetColor
   342 ;;		_NeoWave
   343 ;;		___awdiv
   344 ;; This function is called by:
   345 ;;		_main
   346 ;; This function uses a non-reentrant model
   347 ;;
   348                           
   349                           	psect	text1
   350  003740                     __ptext1:
   351                           	opt callstack 0
   352  003740                     _traiteTrame:
   353                           	opt callstack 0
   354  003740  FFFF               	dw	65535	; assembler added errata NOP
   355  003742                     
   356                           ;main.c: 124: void traiteTrame(unsigned char* buffer);main.c: 125: {;main.c: 126:     ui
      +                          nt8_t NeoR, NeoG, NeoB;;main.c: 129:     switch (buffer[EFFET])
   357  003742  EF0E  F01C         	goto	l1354
   358  003746                     l1342:
   359  003746  FFFF               	dw	65535	; assembler added errata NOP
   360                           
   361                           ; BSR set to: 0
   362                           ;main.c: 132:             NeoR = (uint8_t)buffer[R]*255/100;
   363  003748  0100               	movlb	0	; force () banked
   364  00374A  EE20 F002          	lfsr	2,2
   365  00374E  5192               	movf	traiteTrame@buffer& (0+255),w,b
   366  003750  26D9               	addwf	fsr2l,f,c
   367  003752  5193               	movf	(traiteTrame@buffer+1)& (0+255),w,b
   368  003754  22DA               	addwfc	fsr2h,f,c
   369  003756  50DF               	movf	indf2,w,c
   370  003758  0100               	movlb	0	; force () banked
   371  00375A  6F94               	movwf	??_traiteTrame& (0+255),b
   372  00375C  5194               	movf	??_traiteTrame& (0+255),w,b
   373  00375E  0DFF               	mullw	255
   374  003760  CFF3 F08A          	movff	prodl,___awdiv@dividend
   375  003764  CFF4 F08B          	movff	prodh,___awdiv@dividend+1
   376  003768  0E00               	movlw	0
   377  00376A  0100               	movlb	0	; force () banked
   378  00376C  6F8D               	movwf	(___awdiv@divisor+1)& (0+255),b
   379  00376E  0E64               	movlw	100
   380  003770  6F8C               	movwf	___awdiv@divisor& (0+255),b
   381  003772  EC27  F01B         	call	___awdiv	;wreg free
   382  003776  0100               	movlb	0	; force () banked
   383  003778  518A               	movf	?___awdiv& (0+255),w,b
   384  00377A  0100               	movlb	0	; force () banked
   385  00377C  6F96               	movwf	traiteTrame@NeoR& (0+255),b
   386                           
   387                           ;main.c: 133:             NeoG = (uint8_t)buffer[G]*255/100;
   388  00377E  0100               	movlb	0	; force () banked
   389  003780  EE20 F003          	lfsr	2,3
   390  003784  5192               	movf	traiteTrame@buffer& (0+255),w,b
   391  003786  26D9               	addwf	fsr2l,f,c
   392  003788  5193               	movf	(traiteTrame@buffer+1)& (0+255),w,b
   393  00378A  22DA               	addwfc	fsr2h,f,c
   394  00378C  50DF               	movf	indf2,w,c
   395  00378E  0100               	movlb	0	; force () banked
   396  003790  6F94               	movwf	??_traiteTrame& (0+255),b
   397  003792  5194               	movf	??_traiteTrame& (0+255),w,b
   398  003794  0DFF               	mullw	255
   399  003796  CFF3 F08A          	movff	prodl,___awdiv@dividend
   400  00379A  CFF4 F08B          	movff	prodh,___awdiv@dividend+1
   401  00379E  0E00               	movlw	0
   402  0037A0  0100               	movlb	0	; force () banked
   403  0037A2  6F8D               	movwf	(___awdiv@divisor+1)& (0+255),b
   404  0037A4  0E64               	movlw	100
   405  0037A6  6F8C               	movwf	___awdiv@divisor& (0+255),b
   406  0037A8  EC27  F01B         	call	___awdiv	;wreg free
   407  0037AC  0100               	movlb	0	; force () banked
   408  0037AE  518A               	movf	?___awdiv& (0+255),w,b
   409  0037B0  0100               	movlb	0	; force () banked
   410  0037B2  6F97               	movwf	traiteTrame@NeoG& (0+255),b
   411                           
   412                           ;main.c: 134:             NeoB = (uint8_t)buffer[B]*255/100;
   413  0037B4  0100               	movlb	0	; force () banked
   414  0037B6  EE20 F004          	lfsr	2,4
   415  0037BA  5192               	movf	traiteTrame@buffer& (0+255),w,b
   416  0037BC  26D9               	addwf	fsr2l,f,c
   417  0037BE  5193               	movf	(traiteTrame@buffer+1)& (0+255),w,b
   418  0037C0  22DA               	addwfc	fsr2h,f,c
   419  0037C2  50DF               	movf	indf2,w,c
   420  0037C4  0100               	movlb	0	; force () banked
   421  0037C6  6F94               	movwf	??_traiteTrame& (0+255),b
   422  0037C8  5194               	movf	??_traiteTrame& (0+255),w,b
   423  0037CA  0DFF               	mullw	255
   424  0037CC  CFF3 F08A          	movff	prodl,___awdiv@dividend
   425  0037D0  CFF4 F08B          	movff	prodh,___awdiv@dividend+1
   426  0037D4  0E00               	movlw	0
   427  0037D6  0100               	movlb	0	; force () banked
   428  0037D8  6F8D               	movwf	(___awdiv@divisor+1)& (0+255),b
   429  0037DA  0E64               	movlw	100
   430  0037DC  6F8C               	movwf	___awdiv@divisor& (0+255),b
   431  0037DE  EC27  F01B         	call	___awdiv	;wreg free
   432  0037E2  0100               	movlb	0	; force () banked
   433  0037E4  518A               	movf	?___awdiv& (0+255),w,b
   434  0037E6  0100               	movlb	0	; force () banked
   435  0037E8  6F98               	movwf	traiteTrame@NeoB& (0+255),b
   436  0037EA                     
   437                           ; BSR set to: 0
   438                           ;main.c: 136:             NeoSetColor(NeoR, NeoG,NeoB);
   439  0037EA  C097  F08A         	movff	traiteTrame@NeoG,NeoSetColor@G
   440  0037EE  C098  F08B         	movff	traiteTrame@NeoB,NeoSetColor@B
   441  0037F2  0100               	movlb	0	; force () banked
   442  0037F4  5196               	movf	traiteTrame@NeoR& (0+255),w,b
   443  0037F6  EC15  F01A         	call	_NeoSetColor
   444                           
   445                           ;main.c: 137:         break;
   446  0037FA  EF35  F01C         	goto	l59
   447  0037FE                     l1346:
   448  0037FE  FFFF               	dw	65535	; assembler added errata NOP
   449                           
   450                           ; BSR set to: 0
   451                           ;main.c: 140:             NeoInit();
   452  003800  ECBE  F01E         	call	_NeoInit	;wreg free
   453                           
   454                           ;main.c: 141:         break;
   455  003804  EF35  F01C         	goto	l59
   456  003808                     l1348:
   457  003808  FFFF               	dw	65535	; assembler added errata NOP
   458                           
   459                           ; BSR set to: 0
   460                           ;main.c: 144:             NeoRotate();
   461  00380A  EC60  F01A         	call	_NeoRotate	;wreg free
   462                           
   463                           ;main.c: 145:         break;
   464  00380E  EF35  F01C         	goto	l59
   465  003812                     l1350:
   466  003812  FFFF               	dw	65535	; assembler added errata NOP
   467                           
   468                           ; BSR set to: 0
   469                           ;main.c: 148:             NeoWave();
   470  003814  EC05  F01D         	call	_NeoWave	;wreg free
   471                           
   472                           ;main.c: 149:         break;
   473  003818  EF35  F01C         	goto	l59
   474  00381C                     l1354:
   475  00381C  FFFF               	dw	65535	; assembler added errata NOP
   476  00381E  0100               	movlb	0	; force () banked
   477  003820  EE20 F001          	lfsr	2,1
   478  003824  5192               	movf	traiteTrame@buffer& (0+255),w,b
   479  003826  26D9               	addwf	fsr2l,f,c
   480  003828  5193               	movf	(traiteTrame@buffer+1)& (0+255),w,b
   481  00382A  22DA               	addwfc	fsr2h,f,c
   482  00382C  50DF               	movf	indf2,w,c
   483  00382E  0100               	movlb	0	; force () banked
   484  003830  6F94               	movwf	??_traiteTrame& (0+255),b
   485  003832  6B95               	clrf	(??_traiteTrame+1)& (0+255),b
   486                           
   487                           ; Switch on 2 bytes has been partitioned into a top level switch of size 1, and 1 sub-sw
      +                          itches
   488                           ; Switch size 1, requested type "simple"
   489                           ; Number of cases is 1, Range of values is 0 to 0
   490                           ; switch strategies available:
   491                           ; Name         Instructions Cycles
   492                           ; simple_byte            4     3 (average)
   493                           ;	Chosen strategy is simple_byte
   494  003834  5195               	movf	(??_traiteTrame+1)& (0+255),w,b
   495  003836  0A00               	xorlw	0	; case 0
   496  003838  B4D8               	btfsc	status,2,c
   497  00383A  EF21  F01C         	goto	l1392
   498  00383E  EF35  F01C         	goto	l59
   499  003842                     l1392:
   500  003842  FFFF               	dw	65535	; assembler added errata NOP
   501                           
   502                           ; BSR set to: 0
   503                           ; Switch size 1, requested type "simple"
   504                           ; Number of cases is 4, Range of values is 65 to 80
   505                           ; switch strategies available:
   506                           ; Name         Instructions Cycles
   507                           ; simple_byte           13     7 (average)
   508                           ;	Chosen strategy is simple_byte
   509  003844  5194               	movf	??_traiteTrame& (0+255),w,b
   510  003846  0A41               	xorlw	65	; case 65
   511  003848  B4D8               	btfsc	status,2,c
   512  00384A  EFFF  F01B         	goto	l1346
   513  00384E  0A03               	xorlw	3	; case 66
   514  003850  B4D8               	btfsc	status,2,c
   515  003852  EF04  F01C         	goto	l1348
   516  003856  0A01               	xorlw	1	; case 67
   517  003858  B4D8               	btfsc	status,2,c
   518  00385A  EF09  F01C         	goto	l1350
   519  00385E  0A13               	xorlw	19	; case 80
   520  003860  B4D8               	btfsc	status,2,c
   521  003862  EFA3  F01B         	goto	l1342
   522  003866  EF35  F01C         	goto	l59
   523  00386A                     l59:
   524  00386A  FFFF               	dw	65535	; assembler added errata NOP
   525  00386C  0012               	return		;funcret
   526  00386E  FFFF               	dw	65535	; errata NOP
   527  003870                     __end_of_traiteTrame:
   528                           	opt callstack 0
   529                           
   530 ;; *************** function ___awdiv *****************
   531 ;; Defined at:
   532 ;;		line 7 in file "C:\Program Files (x86)\Microchip\xc8\v2.10\pic\sources\c99\common\awdiv.c"
   533 ;; Parameters:    Size  Location     Type
   534 ;;  dividend        2    0[BANK0 ] int 
   535 ;;  divisor         2    2[BANK0 ] int 
   536 ;; Auto vars:     Size  Location     Type
   537 ;;  quotient        2    6[BANK0 ] int 
   538 ;;  sign            1    5[BANK0 ] unsigned char 
   539 ;;  counter         1    4[BANK0 ] unsigned char 
   540 ;; Return value:  Size  Location     Type
   541 ;;                  2    0[BANK0 ] int 
   542 ;; Registers used:
   543 ;;		wreg, status,2, status,0
   544 ;; Tracked objects:
   545 ;;		On entry : 0/0
   546 ;;		On exit  : 0/0
   547 ;;		Unchanged: 0/0
   548 ;; Data sizes:     COMRAM   BANK0   BANK2   BANK3   BANK4   BANK1   BANK5
   549 ;;      Params:         0       4       0       0       0       0       0
   550 ;;      Locals:         0       4       0       0       0       0       0
   551 ;;      Temps:          0       0       0       0       0       0       0
   552 ;;      Totals:         0       8       0       0       0       0       0
   553 ;;Total ram usage:        8 bytes
   554 ;; Hardware stack levels used:    1
   555 ;; This function calls:
   556 ;;		Nothing
   557 ;; This function is called by:
   558 ;;		_traiteTrame
   559 ;; This function uses a non-reentrant model
   560 ;;
   561                           
   562                           	psect	text2
   563  00364E                     __ptext2:
   564                           	opt callstack 0
   565  00364E                     ___awdiv:
   566                           	opt callstack 0
   567  00364E  FFFF               	dw	65535	; assembler added errata NOP
   568  003650  0E00               	movlw	0
   569  003652  0100               	movlb	0	; () banked
   570  003654  6F8F               	movwf	___awdiv@sign& (0+255),b
   571  003656                     
   572                           ; BSR set to: 0
   573  003656  BF8D               	btfsc	(___awdiv@divisor+1)& (0+255),7,b
   574  003658  EF33  F01B         	goto	u710
   575  00365C  EF30  F01B         	goto	u711
   576  003660                     u711:
   577  003660  FFFF               	dw	65535	; assembler added errata NOP
   578  003662  EF3A  F01B         	goto	l1256
   579  003666                     u710:
   580  003666  FFFF               	dw	65535	; assembler added errata NOP
   581  003668                     
   582                           ; BSR set to: 0
   583  003668  6D8C               	negf	___awdiv@divisor& (0+255),b
   584  00366A  1F8D               	comf	(___awdiv@divisor+1)& (0+255),f,b
   585  00366C  B0D8               	btfsc	status,0,c
   586  00366E  2B8D               	incf	(___awdiv@divisor+1)& (0+255),f,b
   587  003670                     
   588                           ; BSR set to: 0
   589  003670  0E01               	movlw	1
   590  003672  6F8F               	movwf	___awdiv@sign& (0+255),b
   591  003674                     l1256:
   592  003674  FFFF               	dw	65535	; assembler added errata NOP
   593                           
   594                           ; BSR set to: 0
   595  003676  BF8B               	btfsc	(___awdiv@dividend+1)& (0+255),7,b
   596  003678  EF43  F01B         	goto	u720
   597  00367C  EF40  F01B         	goto	u721
   598  003680                     u721:
   599  003680  FFFF               	dw	65535	; assembler added errata NOP
   600  003682  EF4A  F01B         	goto	l1262
   601  003686                     u720:
   602  003686  FFFF               	dw	65535	; assembler added errata NOP
   603  003688                     
   604                           ; BSR set to: 0
   605  003688  6D8A               	negf	___awdiv@dividend& (0+255),b
   606  00368A  1F8B               	comf	(___awdiv@dividend+1)& (0+255),f,b
   607  00368C  B0D8               	btfsc	status,0,c
   608  00368E  2B8B               	incf	(___awdiv@dividend+1)& (0+255),f,b
   609  003690                     
   610                           ; BSR set to: 0
   611  003690  0E01               	movlw	1
   612  003692  1B8F               	xorwf	___awdiv@sign& (0+255),f,b
   613  003694                     l1262:
   614  003694  FFFF               	dw	65535	; assembler added errata NOP
   615                           
   616                           ; BSR set to: 0
   617  003696  0E00               	movlw	0
   618  003698  6F91               	movwf	(___awdiv@quotient+1)& (0+255),b
   619  00369A  0E00               	movlw	0
   620  00369C  6F90               	movwf	___awdiv@quotient& (0+255),b
   621  00369E                     
   622                           ; BSR set to: 0
   623  00369E  518C               	movf	___awdiv@divisor& (0+255),w,b
   624  0036A0  118D               	iorwf	(___awdiv@divisor+1)& (0+255),w,b
   625  0036A2  B4D8               	btfsc	status,2,c
   626  0036A4  EF56  F01B         	goto	u731
   627  0036A8  EF59  F01B         	goto	u730
   628  0036AC                     u731:
   629  0036AC  FFFF               	dw	65535	; assembler added errata NOP
   630  0036AE  EF8A  F01B         	goto	l1284
   631  0036B2                     u730:
   632  0036B2  FFFF               	dw	65535	; assembler added errata NOP
   633  0036B4                     
   634                           ; BSR set to: 0
   635  0036B4  0E01               	movlw	1
   636  0036B6  6F8E               	movwf	___awdiv@counter& (0+255),b
   637  0036B8  EF63  F01B         	goto	l1270
   638  0036BC                     l1268:
   639  0036BC  FFFF               	dw	65535	; assembler added errata NOP
   640                           
   641                           ; BSR set to: 0
   642  0036BE  90D8               	bcf	status,0,c
   643  0036C0  378C               	rlcf	___awdiv@divisor& (0+255),f,b
   644  0036C2  378D               	rlcf	(___awdiv@divisor+1)& (0+255),f,b
   645  0036C4  2B8E               	incf	___awdiv@counter& (0+255),f,b
   646  0036C6                     l1270:
   647  0036C6  FFFF               	dw	65535	; assembler added errata NOP
   648                           
   649                           ; BSR set to: 0
   650  0036C8  AF8D               	btfss	(___awdiv@divisor+1)& (0+255),7,b
   651  0036CA  EF69  F01B         	goto	u741
   652  0036CE  EF6C  F01B         	goto	u740
   653  0036D2                     u741:
   654  0036D2  FFFF               	dw	65535	; assembler added errata NOP
   655  0036D4  EF5E  F01B         	goto	l1268
   656  0036D8                     u740:
   657  0036D8  FFFF               	dw	65535	; assembler added errata NOP
   658  0036DA                     l1272:
   659  0036DA  FFFF               	dw	65535	; assembler added errata NOP
   660                           
   661                           ; BSR set to: 0
   662  0036DC  90D8               	bcf	status,0,c
   663  0036DE  3790               	rlcf	___awdiv@quotient& (0+255),f,b
   664  0036E0  3791               	rlcf	(___awdiv@quotient+1)& (0+255),f,b
   665  0036E2                     
   666                           ; BSR set to: 0
   667  0036E2  518C               	movf	___awdiv@divisor& (0+255),w,b
   668  0036E4  5D8A               	subwf	___awdiv@dividend& (0+255),w,b
   669  0036E6  518D               	movf	(___awdiv@divisor+1)& (0+255),w,b
   670  0036E8  598B               	subwfb	(___awdiv@dividend+1)& (0+255),w,b
   671  0036EA  A0D8               	btfss	status,0,c
   672  0036EC  EF7A  F01B         	goto	u751
   673  0036F0  EF7D  F01B         	goto	u750
   674  0036F4                     u751:
   675  0036F4  FFFF               	dw	65535	; assembler added errata NOP
   676  0036F6  EF83  F01B         	goto	l1280
   677  0036FA                     u750:
   678  0036FA  FFFF               	dw	65535	; assembler added errata NOP
   679  0036FC                     
   680                           ; BSR set to: 0
   681  0036FC  518C               	movf	___awdiv@divisor& (0+255),w,b
   682  0036FE  5F8A               	subwf	___awdiv@dividend& (0+255),f,b
   683  003700  518D               	movf	(___awdiv@divisor+1)& (0+255),w,b
   684  003702  5B8B               	subwfb	(___awdiv@dividend+1)& (0+255),f,b
   685  003704                     
   686                           ; BSR set to: 0
   687  003704  8190               	bsf	___awdiv@quotient& (0+255),0,b
   688  003706                     l1280:
   689  003706  FFFF               	dw	65535	; assembler added errata NOP
   690                           
   691                           ; BSR set to: 0
   692  003708  90D8               	bcf	status,0,c
   693  00370A  338D               	rrcf	(___awdiv@divisor+1)& (0+255),f,b
   694  00370C  338C               	rrcf	___awdiv@divisor& (0+255),f,b
   695  00370E                     
   696                           ; BSR set to: 0
   697  00370E  2F8E               	decfsz	___awdiv@counter& (0+255),f,b
   698  003710  EF6D  F01B         	goto	l1272
   699  003714                     l1284:
   700  003714  FFFF               	dw	65535	; assembler added errata NOP
   701                           
   702                           ; BSR set to: 0
   703  003716  518F               	movf	___awdiv@sign& (0+255),w,b
   704  003718  B4D8               	btfsc	status,2,c
   705  00371A  EF91  F01B         	goto	u761
   706  00371E  EF94  F01B         	goto	u760
   707  003722                     u761:
   708  003722  FFFF               	dw	65535	; assembler added errata NOP
   709  003724  EF99  F01B         	goto	l1288
   710  003728                     u760:
   711  003728  FFFF               	dw	65535	; assembler added errata NOP
   712  00372A                     
   713                           ; BSR set to: 0
   714  00372A  6D90               	negf	___awdiv@quotient& (0+255),b
   715  00372C  1F91               	comf	(___awdiv@quotient+1)& (0+255),f,b
   716  00372E  B0D8               	btfsc	status,0,c
   717  003730  2B91               	incf	(___awdiv@quotient+1)& (0+255),f,b
   718  003732                     l1288:
   719  003732  FFFF               	dw	65535	; assembler added errata NOP
   720                           
   721                           ; BSR set to: 0
   722  003734  C090  F08A         	movff	___awdiv@quotient,?___awdiv
   723  003738  C091  F08B         	movff	___awdiv@quotient+1,?___awdiv+1
   724  00373C                     
   725                           ; BSR set to: 0
   726  00373C  0012               	return		;funcret
   727  00373E  FFFF               	dw	65535	; errata NOP
   728  003740                     __end_of___awdiv:
   729                           	opt callstack 0
   730                           
   731 ;; *************** function _NeoWave *****************
   732 ;; Defined at:
   733 ;;		line 40 in file "EffetsNeoPxl.c"
   734 ;; Parameters:    Size  Location     Type
   735 ;;		None
   736 ;; Auto vars:     Size  Location     Type
   737 ;;  NeoPixel        1    6[BANK0 ] unsigned char 
   738 ;; Return value:  Size  Location     Type
   739 ;;                  1    wreg      void 
   740 ;; Registers used:
   741 ;;		wreg, fsr1l, fsr1h, fsr2l, fsr2h, status,2, status,0, cstack
   742 ;; Tracked objects:
   743 ;;		On entry : 0/0
   744 ;;		On exit  : 0/0
   745 ;;		Unchanged: 0/0
   746 ;; Data sizes:     COMRAM   BANK0   BANK2   BANK3   BANK4   BANK1   BANK5
   747 ;;      Params:         0       0       0       0       0       0       0
   748 ;;      Locals:         0       1       0       0       0       0       0
   749 ;;      Temps:          0       0       0       0       0       0       0
   750 ;;      Totals:         0       1       0       0       0       0       0
   751 ;;Total ram usage:        1 bytes
   752 ;; Hardware stack levels used:    1
   753 ;; Hardware stack levels required when called:    1
   754 ;; This function calls:
   755 ;;		___awmod
   756 ;; This function is called by:
   757 ;;		_traiteTrame
   758 ;; This function uses a non-reentrant model
   759 ;;
   760                           
   761                           	psect	text3
   762  003A0A                     __ptext3:
   763                           	opt callstack 0
   764  003A0A                     _NeoWave:
   765                           	opt callstack 0
   766  003A0A  FFFF               	dw	65535	; assembler added errata NOP
   767  003A0C                     
   768                           ;EffetsNeoPxl.c: 42:    uint8_t NeoPixel;;EffetsNeoPxl.c: 44:    static int position = 0
      +                          ;;EffetsNeoPxl.c: 45:    static int couleur;;EffetsNeoPxl.c: 48:    for (NeoPixel = 0; N
      +                          eoPixel < 12 - 1; NeoPixel++)
   769  003A0C  0E00               	movlw	0
   770  003A0E  0100               	movlb	0	; force () banked
   771  003A10  6F90               	movwf	NeoWave@NeoPixel& (0+255),b
   772  003A12                     
   773                           ; BSR set to: 0
   774  003A12  0E0A               	movlw	10
   775  003A14  0100               	movlb	0	; force () banked
   776  003A16  6590               	cpfsgt	NeoWave@NeoPixel& (0+255),b
   777  003A18  EF10  F01D         	goto	u661
   778  003A1C  EF13  F01D         	goto	u660
   779  003A20                     u661:
   780  003A20  FFFF               	dw	65535	; assembler added errata NOP
   781  003A22  EF16  F01D         	goto	l1220
   782  003A26                     u660:
   783  003A26  FFFF               	dw	65535	; assembler added errata NOP
   784  003A28  EF4E  F01D         	goto	l1226
   785  003A2C                     l1220:
   786  003A2C  FFFF               	dw	65535	; assembler added errata NOP
   787                           
   788                           ; BSR set to: 0
   789                           ;EffetsNeoPxl.c: 49:    {;EffetsNeoPxl.c: 50:       NeoGreen[NeoPixel] = NeoGreen[NeoPix
      +                          el + 1];
   790  003A2E  0E79               	movlw	low (_NeoGreen+1)
   791  003A30  0100               	movlb	0	; force () banked
   792  003A32  2590               	addwf	NeoWave@NeoPixel& (0+255),w,b
   793  003A34  6ED9               	movwf	fsr2l,c
   794  003A36  6ADA               	clrf	fsr2h,c
   795  003A38  0E00               	movlw	high (_NeoGreen+1)
   796  003A3A  22DA               	addwfc	fsr2h,f,c
   797  003A3C  0E78               	movlw	low _NeoGreen
   798  003A3E  2590               	addwf	NeoWave@NeoPixel& (0+255),w,b
   799  003A40  6EE1               	movwf	fsr1l,c
   800  003A42  6AE2               	clrf	fsr1h,c
   801  003A44  0E00               	movlw	high _NeoGreen
   802  003A46  22E2               	addwfc	fsr1h,f,c
   803  003A48  CFDF FFE7          	movff	indf2,indf1
   804                           
   805                           ;EffetsNeoPxl.c: 51:       NeoBlue[NeoPixel] = NeoBlue[NeoPixel + 1];
   806  003A4C  0E6D               	movlw	low (_NeoBlue+1)
   807  003A4E  2590               	addwf	NeoWave@NeoPixel& (0+255),w,b
   808  003A50  6ED9               	movwf	fsr2l,c
   809  003A52  6ADA               	clrf	fsr2h,c
   810  003A54  0E00               	movlw	high (_NeoBlue+1)
   811  003A56  22DA               	addwfc	fsr2h,f,c
   812  003A58  0E6C               	movlw	low _NeoBlue
   813  003A5A  2590               	addwf	NeoWave@NeoPixel& (0+255),w,b
   814  003A5C  6EE1               	movwf	fsr1l,c
   815  003A5E  6AE2               	clrf	fsr1h,c
   816  003A60  0E00               	movlw	high _NeoBlue
   817  003A62  22E2               	addwfc	fsr1h,f,c
   818  003A64  CFDF FFE7          	movff	indf2,indf1
   819                           
   820                           ;EffetsNeoPxl.c: 52:       NeoRed[NeoPixel] = NeoRed[NeoPixel + 1];
   821  003A68  0E61               	movlw	low (_NeoRed+1)
   822  003A6A  2590               	addwf	NeoWave@NeoPixel& (0+255),w,b
   823  003A6C  6ED9               	movwf	fsr2l,c
   824  003A6E  6ADA               	clrf	fsr2h,c
   825  003A70  0E00               	movlw	high (_NeoRed+1)
   826  003A72  22DA               	addwfc	fsr2h,f,c
   827  003A74  0E60               	movlw	low _NeoRed
   828  003A76  2590               	addwf	NeoWave@NeoPixel& (0+255),w,b
   829  003A78  6EE1               	movwf	fsr1l,c
   830  003A7A  6AE2               	clrf	fsr1h,c
   831  003A7C  0E00               	movlw	high _NeoRed
   832  003A7E  22E2               	addwfc	fsr1h,f,c
   833  003A80  CFDF FFE7          	movff	indf2,indf1
   834  003A84                     
   835                           ; BSR set to: 0
   836                           ;EffetsNeoPxl.c: 53:    }
   837  003A84  0100               	movlb	0	; force () banked
   838  003A86  2B90               	incf	NeoWave@NeoPixel& (0+255),f,b
   839  003A88                     
   840                           ; BSR set to: 0
   841  003A88  0E0A               	movlw	10
   842  003A8A  0100               	movlb	0	; force () banked
   843  003A8C  6590               	cpfsgt	NeoWave@NeoPixel& (0+255),b
   844  003A8E  EF4B  F01D         	goto	u671
   845  003A92  EF4E  F01D         	goto	u670
   846  003A96                     u671:
   847  003A96  FFFF               	dw	65535	; assembler added errata NOP
   848  003A98  EF16  F01D         	goto	l1220
   849  003A9C                     u670:
   850  003A9C                     l1226:
   851  003A9C  FFFF               	dw	65535	; assembler added errata NOP
   852                           
   853                           ; BSR set to: 0
   854                           ;EffetsNeoPxl.c: 55:    couleur = (couleur + 10) % 300;
   855  003A9E  0E0A               	movlw	10
   856  003AA0  0100               	movlb	0	; force () banked
   857  003AA2  2584               	addwf	NeoWave@couleur& (0+255),w,b
   858  003AA4  0100               	movlb	0	; force () banked
   859  003AA6  6F8A               	movwf	___awmod@dividend& (0+255),b
   860  003AA8  0E00               	movlw	0
   861  003AAA  0100               	movlb	0	; force () banked
   862  003AAC  2185               	addwfc	(NeoWave@couleur+1)& (0+255),w,b
   863  003AAE  0100               	movlb	0	; force () banked
   864  003AB0  6F8B               	movwf	(___awmod@dividend+1)& (0+255),b
   865  003AB2  0E01               	movlw	1
   866  003AB4  0100               	movlb	0	; force () banked
   867  003AB6  6F8D               	movwf	(___awmod@divisor+1)& (0+255),b
   868  003AB8  0E2C               	movlw	44
   869  003ABA  6F8C               	movwf	___awmod@divisor& (0+255),b
   870  003ABC  ECB8  F01A         	call	___awmod	;wreg free
   871  003AC0  C08A  F084         	movff	?___awmod,NeoWave@couleur
   872  003AC4  C08B  F085         	movff	?___awmod+1,NeoWave@couleur+1
   873  003AC8                     
   874                           ;EffetsNeoPxl.c: 57:    if (couleur < 100)
   875  003AC8  0100               	movlb	0	; force () banked
   876  003ACA  BF85               	btfsc	(NeoWave@couleur+1)& (0+255),7,b
   877  003ACC  EF74  F01D         	goto	u680
   878  003AD0  5185               	movf	(NeoWave@couleur+1)& (0+255),w,b
   879  003AD2  E107               	bnz	u681
   880  003AD4  0E64               	movlw	100
   881  003AD6  5D84               	subwf	NeoWave@couleur& (0+255),w,b
   882  003AD8  B0D8               	btfsc	status,0,c
   883  003ADA  EF71  F01D         	goto	u681
   884  003ADE  EF74  F01D         	goto	u680
   885  003AE2                     u681:
   886  003AE2  FFFF               	dw	65535	; assembler added errata NOP
   887  003AE4  EF7F  F01D         	goto	l1234
   888  003AE8                     u680:
   889  003AE8  FFFF               	dw	65535	; assembler added errata NOP
   890  003AEA                     
   891                           ; BSR set to: 0
   892                           ;EffetsNeoPxl.c: 58:    {;EffetsNeoPxl.c: 59:         NeoGreen[12 - 1] = (uint8_t) coule
      +                          ur;
   893  003AEA  C084  F083         	movff	NeoWave@couleur,_NeoGreen+11
   894  003AEE                     
   895                           ; BSR set to: 0
   896                           ;EffetsNeoPxl.c: 60:         NeoBlue[12 - 1] = (uint8_t) 0;
   897  003AEE  0E00               	movlw	0
   898  003AF0  0100               	movlb	0	; force () banked
   899  003AF2  6F77               	movwf	(_NeoBlue+11)& (0+255),b
   900                           
   901                           ;EffetsNeoPxl.c: 61:         NeoRed[12 - 1] = (uint8_t) 0;
   902  003AF4  0E00               	movlw	0
   903  003AF6  0100               	movlb	0	; force () banked
   904  003AF8  6F6B               	movwf	(_NeoRed+11)& (0+255),b
   905                           
   906                           ;EffetsNeoPxl.c: 62:    }
   907  003AFA  EFCF  F01D         	goto	l140
   908  003AFE                     l1234:
   909  003AFE  FFFF               	dw	65535	; assembler added errata NOP
   910                           
   911                           ; BSR set to: 0
   912  003B00  0100               	movlb	0	; force () banked
   913  003B02  BF85               	btfsc	(NeoWave@couleur+1)& (0+255),7,b
   914  003B04  EF90  F01D         	goto	u690
   915  003B08  5185               	movf	(NeoWave@couleur+1)& (0+255),w,b
   916  003B0A  E107               	bnz	u691
   917  003B0C  0EC8               	movlw	200
   918  003B0E  5D84               	subwf	NeoWave@couleur& (0+255),w,b
   919  003B10  B0D8               	btfsc	status,0,c
   920  003B12  EF8D  F01D         	goto	u691
   921  003B16  EF90  F01D         	goto	u690
   922  003B1A                     u691:
   923  003B1A  FFFF               	dw	65535	; assembler added errata NOP
   924  003B1C  EFA8  F01D         	goto	l1242
   925  003B20                     u690:
   926  003B20  FFFF               	dw	65535	; assembler added errata NOP
   927  003B22                     
   928                           ; BSR set to: 0
   929                           ;EffetsNeoPxl.c: 64:    {;EffetsNeoPxl.c: 65:         NeoGreen[12 - 1] = (uint8_t) 0;
   930  003B22  0E00               	movlw	0
   931  003B24  0100               	movlb	0	; force () banked
   932  003B26  6F83               	movwf	(_NeoGreen+11)& (0+255),b
   933  003B28                     
   934                           ; BSR set to: 0
   935                           ;EffetsNeoPxl.c: 66:         NeoBlue[12 - 1] = (uint8_t) couleur % 100;
   936  003B28  C084  F08A         	movff	NeoWave@couleur,___awmod@dividend
   937  003B2C  0100               	movlb	0	; force () banked
   938  003B2E  6B8B               	clrf	(___awmod@dividend+1)& (0+255),b
   939  003B30  0E00               	movlw	0
   940  003B32  0100               	movlb	0	; force () banked
   941  003B34  6F8D               	movwf	(___awmod@divisor+1)& (0+255),b
   942  003B36  0E64               	movlw	100
   943  003B38  6F8C               	movwf	___awmod@divisor& (0+255),b
   944  003B3A  ECB8  F01A         	call	___awmod	;wreg free
   945  003B3E  0100               	movlb	0	; force () banked
   946  003B40  518A               	movf	?___awmod& (0+255),w,b
   947  003B42  0100               	movlb	0	; force () banked
   948  003B44  6F77               	movwf	(_NeoBlue+11)& (0+255),b
   949  003B46                     
   950                           ; BSR set to: 0
   951                           ;EffetsNeoPxl.c: 67:         NeoRed[12 - 1] = (uint8_t) 0;
   952  003B46  0E00               	movlw	0
   953  003B48  0100               	movlb	0	; force () banked
   954  003B4A  6F6B               	movwf	(_NeoRed+11)& (0+255),b
   955                           
   956                           ;EffetsNeoPxl.c: 68:    }
   957  003B4C  EFCF  F01D         	goto	l140
   958  003B50                     l1242:
   959  003B50  FFFF               	dw	65535	; assembler added errata NOP
   960                           
   961                           ; BSR set to: 0
   962  003B52  0100               	movlb	0	; force () banked
   963  003B54  BF85               	btfsc	(NeoWave@couleur+1)& (0+255),7,b
   964  003B56  EFB9  F01D         	goto	u700
   965  003B5A  0E2C               	movlw	44
   966  003B5C  5D84               	subwf	NeoWave@couleur& (0+255),w,b
   967  003B5E  0E01               	movlw	1
   968  003B60  5985               	subwfb	(NeoWave@couleur+1)& (0+255),w,b
   969  003B62  B0D8               	btfsc	status,0,c
   970  003B64  EFB6  F01D         	goto	u701
   971  003B68  EFB9  F01D         	goto	u700
   972  003B6C                     u701:
   973  003B6C  FFFF               	dw	65535	; assembler added errata NOP
   974  003B6E  EFCF  F01D         	goto	l140
   975  003B72                     u700:
   976  003B72  FFFF               	dw	65535	; assembler added errata NOP
   977  003B74                     
   978                           ; BSR set to: 0
   979                           ;EffetsNeoPxl.c: 71:    {;EffetsNeoPxl.c: 72:         NeoGreen[12 - 1] = (uint8_t) 0;
   980  003B74  0E00               	movlw	0
   981  003B76  0100               	movlb	0	; force () banked
   982  003B78  6F83               	movwf	(_NeoGreen+11)& (0+255),b
   983                           
   984                           ;EffetsNeoPxl.c: 73:         NeoBlue[12 - 1] = (uint8_t) 0;
   985  003B7A  0E00               	movlw	0
   986  003B7C  0100               	movlb	0	; force () banked
   987  003B7E  6F77               	movwf	(_NeoBlue+11)& (0+255),b
   988  003B80                     
   989                           ; BSR set to: 0
   990                           ;EffetsNeoPxl.c: 74:         NeoRed[12 - 1] = (uint8_t) couleur % 200;
   991  003B80  C084  F08A         	movff	NeoWave@couleur,___awmod@dividend
   992  003B84  0100               	movlb	0	; force () banked
   993  003B86  6B8B               	clrf	(___awmod@dividend+1)& (0+255),b
   994  003B88  0E00               	movlw	0
   995  003B8A  0100               	movlb	0	; force () banked
   996  003B8C  6F8D               	movwf	(___awmod@divisor+1)& (0+255),b
   997  003B8E  0EC8               	movlw	200
   998  003B90  6F8C               	movwf	___awmod@divisor& (0+255),b
   999  003B92  ECB8  F01A         	call	___awmod	;wreg free
  1000  003B96  0100               	movlb	0	; force () banked
  1001  003B98  518A               	movf	?___awmod& (0+255),w,b
  1002  003B9A  0100               	movlb	0	; force () banked
  1003  003B9C  6F6B               	movwf	(_NeoRed+11)& (0+255),b
  1004  003B9E                     l140:
  1005  003B9E  FFFF               	dw	65535	; assembler added errata NOP
  1006                           
  1007                           ; BSR set to: 0
  1008  003BA0  0012               	return		;funcret
  1009  003BA2  FFFF               	dw	65535	; errata NOP
  1010  003BA4                     __end_of_NeoWave:
  1011                           	opt callstack 0
  1012                           
  1013 ;; *************** function ___awmod *****************
  1014 ;; Defined at:
  1015 ;;		line 7 in file "C:\Program Files (x86)\Microchip\xc8\v2.10\pic\sources\c99\common\awmod.c"
  1016 ;; Parameters:    Size  Location     Type
  1017 ;;  dividend        2    0[BANK0 ] int 
  1018 ;;  divisor         2    2[BANK0 ] int 
  1019 ;; Auto vars:     Size  Location     Type
  1020 ;;  sign            1    5[BANK0 ] unsigned char 
  1021 ;;  counter         1    4[BANK0 ] unsigned char 
  1022 ;; Return value:  Size  Location     Type
  1023 ;;                  2    0[BANK0 ] int 
  1024 ;; Registers used:
  1025 ;;		wreg, status,2, status,0
  1026 ;; Tracked objects:
  1027 ;;		On entry : 0/0
  1028 ;;		On exit  : 0/0
  1029 ;;		Unchanged: 0/0
  1030 ;; Data sizes:     COMRAM   BANK0   BANK2   BANK3   BANK4   BANK1   BANK5
  1031 ;;      Params:         0       4       0       0       0       0       0
  1032 ;;      Locals:         0       2       0       0       0       0       0
  1033 ;;      Temps:          0       0       0       0       0       0       0
  1034 ;;      Totals:         0       6       0       0       0       0       0
  1035 ;;Total ram usage:        6 bytes
  1036 ;; Hardware stack levels used:    1
  1037 ;; This function calls:
  1038 ;;		Nothing
  1039 ;; This function is called by:
  1040 ;;		_NeoWave
  1041 ;; This function uses a non-reentrant model
  1042 ;;
  1043                           
  1044                           	psect	text4
  1045  003570                     __ptext4:
  1046                           	opt callstack 0
  1047  003570                     ___awmod:
  1048                           	opt callstack 0
  1049  003570  FFFF               	dw	65535	; assembler added errata NOP
  1050  003572  0E00               	movlw	0
  1051  003574  0100               	movlb	0	; () banked
  1052  003576  6F8F               	movwf	___awmod@sign& (0+255),b
  1053  003578                     
  1054                           ; BSR set to: 0
  1055  003578  BF8B               	btfsc	(___awmod@dividend+1)& (0+255),7,b
  1056  00357A  EFC4  F01A         	goto	u580
  1057  00357E  EFC1  F01A         	goto	u581
  1058  003582                     u581:
  1059  003582  FFFF               	dw	65535	; assembler added errata NOP
  1060  003584  EFCB  F01A         	goto	l1174
  1061  003588                     u580:
  1062  003588  FFFF               	dw	65535	; assembler added errata NOP
  1063  00358A                     
  1064                           ; BSR set to: 0
  1065  00358A  6D8A               	negf	___awmod@dividend& (0+255),b
  1066  00358C  1F8B               	comf	(___awmod@dividend+1)& (0+255),f,b
  1067  00358E  B0D8               	btfsc	status,0,c
  1068  003590  2B8B               	incf	(___awmod@dividend+1)& (0+255),f,b
  1069  003592                     
  1070                           ; BSR set to: 0
  1071  003592  0E01               	movlw	1
  1072  003594  6F8F               	movwf	___awmod@sign& (0+255),b
  1073  003596                     l1174:
  1074  003596  FFFF               	dw	65535	; assembler added errata NOP
  1075                           
  1076                           ; BSR set to: 0
  1077  003598  BF8D               	btfsc	(___awmod@divisor+1)& (0+255),7,b
  1078  00359A  EFD4  F01A         	goto	u590
  1079  00359E  EFD1  F01A         	goto	u591
  1080  0035A2                     u591:
  1081  0035A2  FFFF               	dw	65535	; assembler added errata NOP
  1082  0035A4  EFD9  F01A         	goto	l1178
  1083  0035A8                     u590:
  1084  0035A8  FFFF               	dw	65535	; assembler added errata NOP
  1085  0035AA                     
  1086                           ; BSR set to: 0
  1087  0035AA  6D8C               	negf	___awmod@divisor& (0+255),b
  1088  0035AC  1F8D               	comf	(___awmod@divisor+1)& (0+255),f,b
  1089  0035AE  B0D8               	btfsc	status,0,c
  1090  0035B0  2B8D               	incf	(___awmod@divisor+1)& (0+255),f,b
  1091  0035B2                     l1178:
  1092  0035B2  FFFF               	dw	65535	; assembler added errata NOP
  1093                           
  1094                           ; BSR set to: 0
  1095  0035B4  518C               	movf	___awmod@divisor& (0+255),w,b
  1096  0035B6  118D               	iorwf	(___awmod@divisor+1)& (0+255),w,b
  1097  0035B8  B4D8               	btfsc	status,2,c
  1098  0035BA  EFE1  F01A         	goto	u601
  1099  0035BE  EFE4  F01A         	goto	u600
  1100  0035C2                     u601:
  1101  0035C2  FFFF               	dw	65535	; assembler added errata NOP
  1102  0035C4  EF11  F01B         	goto	l1194
  1103  0035C8                     u600:
  1104  0035C8  FFFF               	dw	65535	; assembler added errata NOP
  1105  0035CA                     
  1106                           ; BSR set to: 0
  1107  0035CA  0E01               	movlw	1
  1108  0035CC  6F8E               	movwf	___awmod@counter& (0+255),b
  1109  0035CE  EFEE  F01A         	goto	l1184
  1110  0035D2                     l1182:
  1111  0035D2  FFFF               	dw	65535	; assembler added errata NOP
  1112                           
  1113                           ; BSR set to: 0
  1114  0035D4  90D8               	bcf	status,0,c
  1115  0035D6  378C               	rlcf	___awmod@divisor& (0+255),f,b
  1116  0035D8  378D               	rlcf	(___awmod@divisor+1)& (0+255),f,b
  1117  0035DA  2B8E               	incf	___awmod@counter& (0+255),f,b
  1118  0035DC                     l1184:
  1119  0035DC  FFFF               	dw	65535	; assembler added errata NOP
  1120                           
  1121                           ; BSR set to: 0
  1122  0035DE  AF8D               	btfss	(___awmod@divisor+1)& (0+255),7,b
  1123  0035E0  EFF4  F01A         	goto	u611
  1124  0035E4  EFF7  F01A         	goto	u610
  1125  0035E8                     u611:
  1126  0035E8  FFFF               	dw	65535	; assembler added errata NOP
  1127  0035EA  EFE9  F01A         	goto	l1182
  1128  0035EE                     u610:
  1129  0035EE  FFFF               	dw	65535	; assembler added errata NOP
  1130  0035F0                     l1186:
  1131  0035F0  FFFF               	dw	65535	; assembler added errata NOP
  1132                           
  1133                           ; BSR set to: 0
  1134  0035F2  518C               	movf	___awmod@divisor& (0+255),w,b
  1135  0035F4  5D8A               	subwf	___awmod@dividend& (0+255),w,b
  1136  0035F6  518D               	movf	(___awmod@divisor+1)& (0+255),w,b
  1137  0035F8  598B               	subwfb	(___awmod@dividend+1)& (0+255),w,b
  1138  0035FA  A0D8               	btfss	status,0,c
  1139  0035FC  EF02  F01B         	goto	u621
  1140  003600  EF05  F01B         	goto	u620
  1141  003604                     u621:
  1142  003604  FFFF               	dw	65535	; assembler added errata NOP
  1143  003606  EF0A  F01B         	goto	l1190
  1144  00360A                     u620:
  1145  00360A  FFFF               	dw	65535	; assembler added errata NOP
  1146  00360C                     
  1147                           ; BSR set to: 0
  1148  00360C  518C               	movf	___awmod@divisor& (0+255),w,b
  1149  00360E  5F8A               	subwf	___awmod@dividend& (0+255),f,b
  1150  003610  518D               	movf	(___awmod@divisor+1)& (0+255),w,b
  1151  003612  5B8B               	subwfb	(___awmod@dividend+1)& (0+255),f,b
  1152  003614                     l1190:
  1153  003614  FFFF               	dw	65535	; assembler added errata NOP
  1154                           
  1155                           ; BSR set to: 0
  1156  003616  90D8               	bcf	status,0,c
  1157  003618  338D               	rrcf	(___awmod@divisor+1)& (0+255),f,b
  1158  00361A  338C               	rrcf	___awmod@divisor& (0+255),f,b
  1159  00361C                     
  1160                           ; BSR set to: 0
  1161  00361C  2F8E               	decfsz	___awmod@counter& (0+255),f,b
  1162  00361E  EFF8  F01A         	goto	l1186
  1163  003622                     l1194:
  1164  003622  FFFF               	dw	65535	; assembler added errata NOP
  1165                           
  1166                           ; BSR set to: 0
  1167  003624  518F               	movf	___awmod@sign& (0+255),w,b
  1168  003626  B4D8               	btfsc	status,2,c
  1169  003628  EF18  F01B         	goto	u631
  1170  00362C  EF1B  F01B         	goto	u630
  1171  003630                     u631:
  1172  003630  FFFF               	dw	65535	; assembler added errata NOP
  1173  003632  EF20  F01B         	goto	l1198
  1174  003636                     u630:
  1175  003636  FFFF               	dw	65535	; assembler added errata NOP
  1176  003638                     
  1177                           ; BSR set to: 0
  1178  003638  6D8A               	negf	___awmod@dividend& (0+255),b
  1179  00363A  1F8B               	comf	(___awmod@dividend+1)& (0+255),f,b
  1180  00363C  B0D8               	btfsc	status,0,c
  1181  00363E  2B8B               	incf	(___awmod@dividend+1)& (0+255),f,b
  1182  003640                     l1198:
  1183  003640  FFFF               	dw	65535	; assembler added errata NOP
  1184                           
  1185                           ; BSR set to: 0
  1186  003642  C08A  F08A         	movff	___awmod@dividend,?___awmod
  1187  003646  C08B  F08B         	movff	___awmod@dividend+1,?___awmod+1
  1188  00364A                     
  1189                           ; BSR set to: 0
  1190  00364A  0012               	return		;funcret
  1191  00364C  FFFF               	dw	65535	; errata NOP
  1192  00364E                     __end_of___awmod:
  1193                           	opt callstack 0
  1194                           
  1195 ;; *************** function _NeoSetColor *****************
  1196 ;; Defined at:
  1197 ;;		line 45 in file "NeoPxl.c"
  1198 ;; Parameters:    Size  Location     Type
  1199 ;;  R               1    wreg     unsigned char 
  1200 ;;  G               1    0[BANK0 ] unsigned char 
  1201 ;;  B               1    1[BANK0 ] unsigned char 
  1202 ;; Auto vars:     Size  Location     Type
  1203 ;;  R               1    2[BANK0 ] unsigned char 
  1204 ;;  i               2    3[BANK0 ] int 
  1205 ;; Return value:  Size  Location     Type
  1206 ;;                  1    wreg      void 
  1207 ;; Registers used:
  1208 ;;		wreg, fsr2l, fsr2h, status,2, status,0
  1209 ;; Tracked objects:
  1210 ;;		On entry : 0/0
  1211 ;;		On exit  : 0/0
  1212 ;;		Unchanged: 0/0
  1213 ;; Data sizes:     COMRAM   BANK0   BANK2   BANK3   BANK4   BANK1   BANK5
  1214 ;;      Params:         0       2       0       0       0       0       0
  1215 ;;      Locals:         0       3       0       0       0       0       0
  1216 ;;      Temps:          0       0       0       0       0       0       0
  1217 ;;      Totals:         0       5       0       0       0       0       0
  1218 ;;Total ram usage:        5 bytes
  1219 ;; Hardware stack levels used:    1
  1220 ;; This function calls:
  1221 ;;		Nothing
  1222 ;; This function is called by:
  1223 ;;		_traiteTrame
  1224 ;; This function uses a non-reentrant model
  1225 ;;
  1226                           
  1227                           	psect	text5
  1228  00342A                     __ptext5:
  1229                           	opt callstack 0
  1230  00342A                     _NeoSetColor:
  1231                           	opt callstack 0
  1232  00342A  FFFF               	dw	65535	; assembler added errata NOP
  1233                           
  1234                           ; BSR set to: 0
  1235                           ;incstack = 0
  1236                           ;NeoSetColor@R stored from wreg
  1237  00342C  0100               	movlb	0	; force () banked
  1238  00342E  6F8C               	movwf	NeoSetColor@R& (0+255),b
  1239  003430                     
  1240                           ;NeoPxl.c: 45: void NeoSetColor(uint8_t R, uint8_t G, uint8_t B);NeoPxl.c: 46: {;NeoPxl.
      +                          c: 47:     for (int i = 0; i < 12; i++)
  1241  003430  0E00               	movlw	0
  1242  003432  0100               	movlb	0	; force () banked
  1243  003434  6F8E               	movwf	(NeoSetColor@i+1)& (0+255),b
  1244  003436  0E00               	movlw	0
  1245  003438  6F8D               	movwf	NeoSetColor@i& (0+255),b
  1246  00343A                     
  1247                           ; BSR set to: 0
  1248  00343A  0100               	movlb	0	; force () banked
  1249  00343C  BF8E               	btfsc	(NeoSetColor@i+1)& (0+255),7,b
  1250  00343E  EF2A  F01A         	goto	u641
  1251  003442  518E               	movf	(NeoSetColor@i+1)& (0+255),w,b
  1252  003444  E10A               	bnz	u640
  1253  003446  0E0C               	movlw	12
  1254  003448  5D8D               	subwf	NeoSetColor@i& (0+255),w,b
  1255  00344A  A0D8               	btfss	status,0,c
  1256  00344C  EF2A  F01A         	goto	u641
  1257  003450  EF2D  F01A         	goto	u640
  1258  003454                     u641:
  1259  003454  FFFF               	dw	65535	; assembler added errata NOP
  1260  003456  EF30  F01A         	goto	l1208
  1261  00345A                     u640:
  1262  00345A  FFFF               	dw	65535	; assembler added errata NOP
  1263  00345C  EF5D  F01A         	goto	l83
  1264  003460                     l1208:
  1265  003460  FFFF               	dw	65535	; assembler added errata NOP
  1266                           
  1267                           ; BSR set to: 0
  1268                           ;NeoPxl.c: 48:     {;NeoPxl.c: 49:         NeoGreen[i]= G;
  1269  003462  0E78               	movlw	low _NeoGreen
  1270  003464  0100               	movlb	0	; force () banked
  1271  003466  258D               	addwf	NeoSetColor@i& (0+255),w,b
  1272  003468  6ED9               	movwf	fsr2l,c
  1273  00346A  0E00               	movlw	high _NeoGreen
  1274  00346C  218E               	addwfc	(NeoSetColor@i+1)& (0+255),w,b
  1275  00346E  6EDA               	movwf	fsr2h,c
  1276  003470  C08A  FFDF         	movff	NeoSetColor@G,indf2
  1277                           
  1278                           ;NeoPxl.c: 50:         NeoRed[i]=R;
  1279  003474  0E60               	movlw	low _NeoRed
  1280  003476  258D               	addwf	NeoSetColor@i& (0+255),w,b
  1281  003478  6ED9               	movwf	fsr2l,c
  1282  00347A  0E00               	movlw	high _NeoRed
  1283  00347C  218E               	addwfc	(NeoSetColor@i+1)& (0+255),w,b
  1284  00347E  6EDA               	movwf	fsr2h,c
  1285  003480  C08C  FFDF         	movff	NeoSetColor@R,indf2
  1286                           
  1287                           ;NeoPxl.c: 51:         NeoBlue[i]=B;
  1288  003484  0E6C               	movlw	low _NeoBlue
  1289  003486  258D               	addwf	NeoSetColor@i& (0+255),w,b
  1290  003488  6ED9               	movwf	fsr2l,c
  1291  00348A  0E00               	movlw	high _NeoBlue
  1292  00348C  218E               	addwfc	(NeoSetColor@i+1)& (0+255),w,b
  1293  00348E  6EDA               	movwf	fsr2h,c
  1294  003490  C08B  FFDF         	movff	NeoSetColor@B,indf2
  1295  003494                     
  1296                           ; BSR set to: 0
  1297                           ;NeoPxl.c: 52:     }
  1298  003494  0100               	movlb	0	; force () banked
  1299  003496  4B8D               	infsnz	NeoSetColor@i& (0+255),f,b
  1300  003498  2B8E               	incf	(NeoSetColor@i+1)& (0+255),f,b
  1301  00349A                     
  1302                           ; BSR set to: 0
  1303  00349A  0100               	movlb	0	; force () banked
  1304  00349C  BF8E               	btfsc	(NeoSetColor@i+1)& (0+255),7,b
  1305  00349E  EF5A  F01A         	goto	u651
  1306  0034A2  518E               	movf	(NeoSetColor@i+1)& (0+255),w,b
  1307  0034A4  E10A               	bnz	u650
  1308  0034A6  0E0C               	movlw	12
  1309  0034A8  5D8D               	subwf	NeoSetColor@i& (0+255),w,b
  1310  0034AA  A0D8               	btfss	status,0,c
  1311  0034AC  EF5A  F01A         	goto	u651
  1312  0034B0  EF5D  F01A         	goto	u650
  1313  0034B4                     u651:
  1314  0034B4  FFFF               	dw	65535	; assembler added errata NOP
  1315  0034B6  EF30  F01A         	goto	l1208
  1316  0034BA                     u650:
  1317  0034BA                     l83:
  1318  0034BA  FFFF               	dw	65535	; assembler added errata NOP
  1319                           
  1320                           ; BSR set to: 0
  1321  0034BC  0012               	return		;funcret
  1322  0034BE  FFFF               	dw	65535	; errata NOP
  1323  0034C0                     __end_of_NeoSetColor:
  1324                           	opt callstack 0
  1325                           
  1326 ;; *************** function _NeoRotate *****************
  1327 ;; Defined at:
  1328 ;;		line 20 in file "EffetsNeoPxl.c"
  1329 ;; Parameters:    Size  Location     Type
  1330 ;;		None
  1331 ;; Auto vars:     Size  Location     Type
  1332 ;;  NeoPixel        1    3[BANK0 ] unsigned char 
  1333 ;;  B               1    2[BANK0 ] unsigned char 
  1334 ;;  G               1    1[BANK0 ] unsigned char 
  1335 ;;  R               1    0[BANK0 ] unsigned char 
  1336 ;; Return value:  Size  Location     Type
  1337 ;;                  1    wreg      void 
  1338 ;; Registers used:
  1339 ;;		wreg, fsr1l, fsr1h, fsr2l, fsr2h, status,2, status,0
  1340 ;; Tracked objects:
  1341 ;;		On entry : 0/0
  1342 ;;		On exit  : 0/0
  1343 ;;		Unchanged: 0/0
  1344 ;; Data sizes:     COMRAM   BANK0   BANK2   BANK3   BANK4   BANK1   BANK5
  1345 ;;      Params:         0       0       0       0       0       0       0
  1346 ;;      Locals:         0       4       0       0       0       0       0
  1347 ;;      Temps:          0       0       0       0       0       0       0
  1348 ;;      Totals:         0       4       0       0       0       0       0
  1349 ;;Total ram usage:        4 bytes
  1350 ;; Hardware stack levels used:    1
  1351 ;; This function calls:
  1352 ;;		Nothing
  1353 ;; This function is called by:
  1354 ;;		_traiteTrame
  1355 ;; This function uses a non-reentrant model
  1356 ;;
  1357                           
  1358                           	psect	text6
  1359  0034C0                     __ptext6:
  1360                           	opt callstack 0
  1361  0034C0                     _NeoRotate:
  1362                           	opt callstack 0
  1363  0034C0  FFFF               	dw	65535	; assembler added errata NOP
  1364  0034C2                     
  1365                           ;EffetsNeoPxl.c: 22:    uint8_t NeoPixel;;EffetsNeoPxl.c: 23:    uint8_t R,G,B;;EffetsNe
      +                          oPxl.c: 24:    G = NeoGreen[0];
  1366  0034C2  C078  F08B         	movff	_NeoGreen,NeoRotate@G
  1367                           
  1368                           ;EffetsNeoPxl.c: 25:    B = NeoBlue[0];
  1369  0034C6  C06C  F08C         	movff	_NeoBlue,NeoRotate@B
  1370                           
  1371                           ;EffetsNeoPxl.c: 26:    R = NeoRed[0];
  1372  0034CA  C060  F08A         	movff	_NeoRed,NeoRotate@R
  1373  0034CE                     
  1374                           ;EffetsNeoPxl.c: 29:    for (NeoPixel = 0; NeoPixel < 12 - 1; NeoPixel++)
  1375  0034CE  0E00               	movlw	0
  1376  0034D0  0100               	movlb	0	; force () banked
  1377  0034D2  6F8D               	movwf	NeoRotate@NeoPixel& (0+255),b
  1378  0034D4                     
  1379                           ; BSR set to: 0
  1380  0034D4  0E0A               	movlw	10
  1381  0034D6  0100               	movlb	0	; force () banked
  1382  0034D8  658D               	cpfsgt	NeoRotate@NeoPixel& (0+255),b
  1383  0034DA  EF71  F01A         	goto	u221
  1384  0034DE  EF74  F01A         	goto	u220
  1385  0034E2                     u221:
  1386  0034E2  FFFF               	dw	65535	; assembler added errata NOP
  1387  0034E4  EF77  F01A         	goto	l916
  1388  0034E8                     u220:
  1389  0034E8  FFFF               	dw	65535	; assembler added errata NOP
  1390  0034EA  EFAF  F01A         	goto	l125
  1391  0034EE                     l916:
  1392  0034EE  FFFF               	dw	65535	; assembler added errata NOP
  1393                           
  1394                           ; BSR set to: 0
  1395                           ;EffetsNeoPxl.c: 30:    {;EffetsNeoPxl.c: 31:       NeoGreen[NeoPixel] = NeoGreen[NeoPix
      +                          el + 1];
  1396  0034F0  0E79               	movlw	low (_NeoGreen+1)
  1397  0034F2  0100               	movlb	0	; force () banked
  1398  0034F4  258D               	addwf	NeoRotate@NeoPixel& (0+255),w,b
  1399  0034F6  6ED9               	movwf	fsr2l,c
  1400  0034F8  6ADA               	clrf	fsr2h,c
  1401  0034FA  0E00               	movlw	high (_NeoGreen+1)
  1402  0034FC  22DA               	addwfc	fsr2h,f,c
  1403  0034FE  0E78               	movlw	low _NeoGreen
  1404  003500  258D               	addwf	NeoRotate@NeoPixel& (0+255),w,b
  1405  003502  6EE1               	movwf	fsr1l,c
  1406  003504  6AE2               	clrf	fsr1h,c
  1407  003506  0E00               	movlw	high _NeoGreen
  1408  003508  22E2               	addwfc	fsr1h,f,c
  1409  00350A  CFDF FFE7          	movff	indf2,indf1
  1410                           
  1411                           ;EffetsNeoPxl.c: 32:       NeoBlue[NeoPixel] = NeoBlue[NeoPixel + 1];
  1412  00350E  0E6D               	movlw	low (_NeoBlue+1)
  1413  003510  258D               	addwf	NeoRotate@NeoPixel& (0+255),w,b
  1414  003512  6ED9               	movwf	fsr2l,c
  1415  003514  6ADA               	clrf	fsr2h,c
  1416  003516  0E00               	movlw	high (_NeoBlue+1)
  1417  003518  22DA               	addwfc	fsr2h,f,c
  1418  00351A  0E6C               	movlw	low _NeoBlue
  1419  00351C  258D               	addwf	NeoRotate@NeoPixel& (0+255),w,b
  1420  00351E  6EE1               	movwf	fsr1l,c
  1421  003520  6AE2               	clrf	fsr1h,c
  1422  003522  0E00               	movlw	high _NeoBlue
  1423  003524  22E2               	addwfc	fsr1h,f,c
  1424  003526  CFDF FFE7          	movff	indf2,indf1
  1425                           
  1426                           ;EffetsNeoPxl.c: 33:       NeoRed[NeoPixel] = NeoRed[NeoPixel + 1];
  1427  00352A  0E61               	movlw	low (_NeoRed+1)
  1428  00352C  258D               	addwf	NeoRotate@NeoPixel& (0+255),w,b
  1429  00352E  6ED9               	movwf	fsr2l,c
  1430  003530  6ADA               	clrf	fsr2h,c
  1431  003532  0E00               	movlw	high (_NeoRed+1)
  1432  003534  22DA               	addwfc	fsr2h,f,c
  1433  003536  0E60               	movlw	low _NeoRed
  1434  003538  258D               	addwf	NeoRotate@NeoPixel& (0+255),w,b
  1435  00353A  6EE1               	movwf	fsr1l,c
  1436  00353C  6AE2               	clrf	fsr1h,c
  1437  00353E  0E00               	movlw	high _NeoRed
  1438  003540  22E2               	addwfc	fsr1h,f,c
  1439  003542  CFDF FFE7          	movff	indf2,indf1
  1440  003546                     
  1441                           ; BSR set to: 0
  1442                           ;EffetsNeoPxl.c: 34:    }
  1443  003546  0100               	movlb	0	; force () banked
  1444  003548  2B8D               	incf	NeoRotate@NeoPixel& (0+255),f,b
  1445  00354A                     
  1446                           ; BSR set to: 0
  1447  00354A  0E0A               	movlw	10
  1448  00354C  0100               	movlb	0	; force () banked
  1449  00354E  658D               	cpfsgt	NeoRotate@NeoPixel& (0+255),b
  1450  003550  EFAC  F01A         	goto	u231
  1451  003554  EFAF  F01A         	goto	u230
  1452  003558                     u231:
  1453  003558  FFFF               	dw	65535	; assembler added errata NOP
  1454  00355A  EF77  F01A         	goto	l916
  1455  00355E                     u230:
  1456  00355E                     l125:
  1457  00355E  FFFF               	dw	65535	; assembler added errata NOP
  1458                           
  1459                           ; BSR set to: 0
  1460                           ;EffetsNeoPxl.c: 35:    NeoGreen[12 - 1] = G;
  1461  003560  C08B  F083         	movff	NeoRotate@G,_NeoGreen+11
  1462                           
  1463                           ;EffetsNeoPxl.c: 36:    NeoBlue[12 - 1] = B;
  1464  003564  C08C  F077         	movff	NeoRotate@B,_NeoBlue+11
  1465                           
  1466                           ;EffetsNeoPxl.c: 37:    NeoRed[12 - 1] = R;
  1467  003568  C08A  F06B         	movff	NeoRotate@R,_NeoRed+11
  1468  00356C                     
  1469                           ; BSR set to: 0
  1470  00356C  0012               	return		;funcret
  1471  00356E  FFFF               	dw	65535	; errata NOP
  1472  003570                     __end_of_NeoRotate:
  1473                           	opt callstack 0
  1474                           
  1475 ;; *************** function _NeoInit *****************
  1476 ;; Defined at:
  1477 ;;		line 62 in file "NeoPxl.c"
  1478 ;; Parameters:    Size  Location     Type
  1479 ;;		None
  1480 ;; Auto vars:     Size  Location     Type
  1481 ;;  NeoPixel        1    0[BANK0 ] unsigned char 
  1482 ;; Return value:  Size  Location     Type
  1483 ;;                  1    wreg      void 
  1484 ;; Registers used:
  1485 ;;		wreg, fsr2l, fsr2h, status,2, status,0
  1486 ;; Tracked objects:
  1487 ;;		On entry : 0/0
  1488 ;;		On exit  : 0/0
  1489 ;;		Unchanged: 0/0
  1490 ;; Data sizes:     COMRAM   BANK0   BANK2   BANK3   BANK4   BANK1   BANK5
  1491 ;;      Params:         0       0       0       0       0       0       0
  1492 ;;      Locals:         0       1       0       0       0       0       0
  1493 ;;      Temps:          0       0       0       0       0       0       0
  1494 ;;      Totals:         0       1       0       0       0       0       0
  1495 ;;Total ram usage:        1 bytes
  1496 ;; Hardware stack levels used:    1
  1497 ;; This function calls:
  1498 ;;		Nothing
  1499 ;; This function is called by:
  1500 ;;		_main
  1501 ;;		_traiteTrame
  1502 ;; This function uses a non-reentrant model
  1503 ;;
  1504                           
  1505                           	psect	text7
  1506  003D7C                     __ptext7:
  1507                           	opt callstack 0
  1508  003D7C                     _NeoInit:
  1509                           	opt callstack 0
  1510  003D7C  FFFF               	dw	65535	; assembler added errata NOP
  1511  003D7E                     
  1512                           ;NeoPxl.c: 64:    uint8_t NeoPixel;;NeoPxl.c: 65:    for (NeoPixel = 0; NeoPixel < 12; N
      +                          eoPixel++)
  1513  003D7E  0E00               	movlw	0
  1514  003D80  0100               	movlb	0	; force () banked
  1515  003D82  6F8A               	movwf	NeoInit@NeoPixel& (0+255),b
  1516  003D84                     
  1517                           ; BSR set to: 0
  1518  003D84  0E0B               	movlw	11
  1519  003D86  0100               	movlb	0	; force () banked
  1520  003D88  658A               	cpfsgt	NeoInit@NeoPixel& (0+255),b
  1521  003D8A  EFC9  F01E         	goto	u71
  1522  003D8E  EFCC  F01E         	goto	u70
  1523  003D92                     u71:
  1524  003D92  FFFF               	dw	65535	; assembler added errata NOP
  1525  003D94  EFCF  F01E         	goto	l858
  1526  003D98                     u70:
  1527  003D98  FFFF               	dw	65535	; assembler added errata NOP
  1528  003D9A  EFFD  F01F         	goto	l99
  1529  003D9E                     l858:
  1530  003D9E  FFFF               	dw	65535	; assembler added errata NOP
  1531                           
  1532                           ; BSR set to: 0
  1533                           ;NeoPxl.c: 66:    {;NeoPxl.c: 67:       if (NeoPixel < 2)
  1534  003DA0  0E02               	movlw	2
  1535  003DA2  0100               	movlb	0	; force () banked
  1536  003DA4  618A               	cpfslt	NeoInit@NeoPixel& (0+255),b
  1537  003DA6  EFD7  F01E         	goto	u81
  1538  003DAA  EFDA  F01E         	goto	u80
  1539  003DAE                     u81:
  1540  003DAE  FFFF               	dw	65535	; assembler added errata NOP
  1541  003DB0  EFF6  F01E         	goto	l862
  1542  003DB4                     u80:
  1543  003DB4  FFFF               	dw	65535	; assembler added errata NOP
  1544  003DB6                     
  1545                           ; BSR set to: 0
  1546                           ;NeoPxl.c: 68:          { NeoGreen[NeoPixel] = 0; NeoBlue[NeoPixel] = 0; NeoRed[NeoPixel
      +                          ] = 64; }
  1547  003DB6  0E78               	movlw	low _NeoGreen
  1548  003DB8  0100               	movlb	0	; force () banked
  1549  003DBA  258A               	addwf	NeoInit@NeoPixel& (0+255),w,b
  1550  003DBC  6ED9               	movwf	fsr2l,c
  1551  003DBE  6ADA               	clrf	fsr2h,c
  1552  003DC0  0E00               	movlw	high _NeoGreen
  1553  003DC2  22DA               	addwfc	fsr2h,f,c
  1554  003DC4  0E00               	movlw	0
  1555  003DC6  6EDF               	movwf	indf2,c
  1556  003DC8  0E6C               	movlw	low _NeoBlue
  1557  003DCA  258A               	addwf	NeoInit@NeoPixel& (0+255),w,b
  1558  003DCC  6ED9               	movwf	fsr2l,c
  1559  003DCE  6ADA               	clrf	fsr2h,c
  1560  003DD0  0E00               	movlw	high _NeoBlue
  1561  003DD2  22DA               	addwfc	fsr2h,f,c
  1562  003DD4  0E00               	movlw	0
  1563  003DD6  6EDF               	movwf	indf2,c
  1564  003DD8  0E60               	movlw	low _NeoRed
  1565  003DDA  258A               	addwf	NeoInit@NeoPixel& (0+255),w,b
  1566  003DDC  6ED9               	movwf	fsr2l,c
  1567  003DDE  6ADA               	clrf	fsr2h,c
  1568  003DE0  0E00               	movlw	high _NeoRed
  1569  003DE2  22DA               	addwfc	fsr2h,f,c
  1570  003DE4  0E40               	movlw	64
  1571  003DE6  6EDF               	movwf	indf2,c
  1572  003DE8  EFF0  F01F         	goto	l892
  1573  003DEC                     l862:
  1574  003DEC  FFFF               	dw	65535	; assembler added errata NOP
  1575                           
  1576                           ; BSR set to: 0
  1577  003DEE  0E01               	movlw	1
  1578  003DF0  0100               	movlb	0	; force () banked
  1579  003DF2  658A               	cpfsgt	NeoInit@NeoPixel& (0+255),b
  1580  003DF4  EFFE  F01E         	goto	u91
  1581  003DF8  EF01  F01F         	goto	u90
  1582  003DFC                     u91:
  1583  003DFC  FFFF               	dw	65535	; assembler added errata NOP
  1584  003DFE  EF28  F01F         	goto	l868
  1585  003E02                     u90:
  1586  003E02  FFFF               	dw	65535	; assembler added errata NOP
  1587  003E04                     
  1588                           ; BSR set to: 0
  1589  003E04  0E04               	movlw	4
  1590  003E06  0100               	movlb	0	; force () banked
  1591  003E08  618A               	cpfslt	NeoInit@NeoPixel& (0+255),b
  1592  003E0A  EF09  F01F         	goto	u101
  1593  003E0E  EF0C  F01F         	goto	u100
  1594  003E12                     u101:
  1595  003E12  FFFF               	dw	65535	; assembler added errata NOP
  1596  003E14  EF28  F01F         	goto	l868
  1597  003E18                     u100:
  1598  003E18  FFFF               	dw	65535	; assembler added errata NOP
  1599  003E1A                     
  1600                           ; BSR set to: 0
  1601                           ;NeoPxl.c: 70:          { NeoGreen[NeoPixel] = 0; NeoBlue[NeoPixel] = 64; NeoRed[NeoPixe
      +                          l] = 0; }
  1602  003E1A  0E78               	movlw	low _NeoGreen
  1603  003E1C  0100               	movlb	0	; force () banked
  1604  003E1E  258A               	addwf	NeoInit@NeoPixel& (0+255),w,b
  1605  003E20  6ED9               	movwf	fsr2l,c
  1606  003E22  6ADA               	clrf	fsr2h,c
  1607  003E24  0E00               	movlw	high _NeoGreen
  1608  003E26  22DA               	addwfc	fsr2h,f,c
  1609  003E28  0E00               	movlw	0
  1610  003E2A  6EDF               	movwf	indf2,c
  1611  003E2C  0E6C               	movlw	low _NeoBlue
  1612  003E2E  258A               	addwf	NeoInit@NeoPixel& (0+255),w,b
  1613  003E30  6ED9               	movwf	fsr2l,c
  1614  003E32  6ADA               	clrf	fsr2h,c
  1615  003E34  0E00               	movlw	high _NeoBlue
  1616  003E36  22DA               	addwfc	fsr2h,f,c
  1617  003E38  0E40               	movlw	64
  1618  003E3A  6EDF               	movwf	indf2,c
  1619  003E3C  0E60               	movlw	low _NeoRed
  1620  003E3E  258A               	addwf	NeoInit@NeoPixel& (0+255),w,b
  1621  003E40  6ED9               	movwf	fsr2l,c
  1622  003E42  6ADA               	clrf	fsr2h,c
  1623  003E44  0E00               	movlw	high _NeoRed
  1624  003E46  22DA               	addwfc	fsr2h,f,c
  1625  003E48  0E00               	movlw	0
  1626  003E4A  6EDF               	movwf	indf2,c
  1627  003E4C  EFF0  F01F         	goto	l892
  1628  003E50                     l868:
  1629  003E50  FFFF               	dw	65535	; assembler added errata NOP
  1630                           
  1631                           ; BSR set to: 0
  1632  003E52  0E03               	movlw	3
  1633  003E54  0100               	movlb	0	; force () banked
  1634  003E56  658A               	cpfsgt	NeoInit@NeoPixel& (0+255),b
  1635  003E58  EF30  F01F         	goto	u111
  1636  003E5C  EF33  F01F         	goto	u110
  1637  003E60                     u111:
  1638  003E60  FFFF               	dw	65535	; assembler added errata NOP
  1639  003E62  EF5A  F01F         	goto	l874
  1640  003E66                     u110:
  1641  003E66  FFFF               	dw	65535	; assembler added errata NOP
  1642  003E68                     
  1643                           ; BSR set to: 0
  1644  003E68  0E06               	movlw	6
  1645  003E6A  0100               	movlb	0	; force () banked
  1646  003E6C  618A               	cpfslt	NeoInit@NeoPixel& (0+255),b
  1647  003E6E  EF3B  F01F         	goto	u121
  1648  003E72  EF3E  F01F         	goto	u120
  1649  003E76                     u121:
  1650  003E76  FFFF               	dw	65535	; assembler added errata NOP
  1651  003E78  EF5A  F01F         	goto	l874
  1652  003E7C                     u120:
  1653  003E7C  FFFF               	dw	65535	; assembler added errata NOP
  1654  003E7E                     
  1655                           ; BSR set to: 0
  1656                           ;NeoPxl.c: 72:          { NeoGreen[NeoPixel] = 0; NeoBlue[NeoPixel] = 64; NeoRed[NeoPixe
      +                          l] = 64; }
  1657  003E7E  0E78               	movlw	low _NeoGreen
  1658  003E80  0100               	movlb	0	; force () banked
  1659  003E82  258A               	addwf	NeoInit@NeoPixel& (0+255),w,b
  1660  003E84  6ED9               	movwf	fsr2l,c
  1661  003E86  6ADA               	clrf	fsr2h,c
  1662  003E88  0E00               	movlw	high _NeoGreen
  1663  003E8A  22DA               	addwfc	fsr2h,f,c
  1664  003E8C  0E00               	movlw	0
  1665  003E8E  6EDF               	movwf	indf2,c
  1666  003E90  0E6C               	movlw	low _NeoBlue
  1667  003E92  258A               	addwf	NeoInit@NeoPixel& (0+255),w,b
  1668  003E94  6ED9               	movwf	fsr2l,c
  1669  003E96  6ADA               	clrf	fsr2h,c
  1670  003E98  0E00               	movlw	high _NeoBlue
  1671  003E9A  22DA               	addwfc	fsr2h,f,c
  1672  003E9C  0E40               	movlw	64
  1673  003E9E  6EDF               	movwf	indf2,c
  1674  003EA0  0E60               	movlw	low _NeoRed
  1675  003EA2  258A               	addwf	NeoInit@NeoPixel& (0+255),w,b
  1676  003EA4  6ED9               	movwf	fsr2l,c
  1677  003EA6  6ADA               	clrf	fsr2h,c
  1678  003EA8  0E00               	movlw	high _NeoRed
  1679  003EAA  22DA               	addwfc	fsr2h,f,c
  1680  003EAC  0E40               	movlw	64
  1681  003EAE  6EDF               	movwf	indf2,c
  1682  003EB0  EFF0  F01F         	goto	l892
  1683  003EB4                     l874:
  1684  003EB4  FFFF               	dw	65535	; assembler added errata NOP
  1685                           
  1686                           ; BSR set to: 0
  1687  003EB6  0E05               	movlw	5
  1688  003EB8  0100               	movlb	0	; force () banked
  1689  003EBA  658A               	cpfsgt	NeoInit@NeoPixel& (0+255),b
  1690  003EBC  EF62  F01F         	goto	u131
  1691  003EC0  EF65  F01F         	goto	u130
  1692  003EC4                     u131:
  1693  003EC4  FFFF               	dw	65535	; assembler added errata NOP
  1694  003EC6  EF8C  F01F         	goto	l880
  1695  003ECA                     u130:
  1696  003ECA  FFFF               	dw	65535	; assembler added errata NOP
  1697  003ECC                     
  1698                           ; BSR set to: 0
  1699  003ECC  0E08               	movlw	8
  1700  003ECE  0100               	movlb	0	; force () banked
  1701  003ED0  618A               	cpfslt	NeoInit@NeoPixel& (0+255),b
  1702  003ED2  EF6D  F01F         	goto	u141
  1703  003ED6  EF70  F01F         	goto	u140
  1704  003EDA                     u141:
  1705  003EDA  FFFF               	dw	65535	; assembler added errata NOP
  1706  003EDC  EF8C  F01F         	goto	l880
  1707  003EE0                     u140:
  1708  003EE0  FFFF               	dw	65535	; assembler added errata NOP
  1709  003EE2                     
  1710                           ; BSR set to: 0
  1711                           ;NeoPxl.c: 74:          { NeoGreen[NeoPixel] = 64; NeoBlue[NeoPixel] = 0; NeoRed[NeoPixe
      +                          l] = 0; }
  1712  003EE2  0E78               	movlw	low _NeoGreen
  1713  003EE4  0100               	movlb	0	; force () banked
  1714  003EE6  258A               	addwf	NeoInit@NeoPixel& (0+255),w,b
  1715  003EE8  6ED9               	movwf	fsr2l,c
  1716  003EEA  6ADA               	clrf	fsr2h,c
  1717  003EEC  0E00               	movlw	high _NeoGreen
  1718  003EEE  22DA               	addwfc	fsr2h,f,c
  1719  003EF0  0E40               	movlw	64
  1720  003EF2  6EDF               	movwf	indf2,c
  1721  003EF4  0E6C               	movlw	low _NeoBlue
  1722  003EF6  258A               	addwf	NeoInit@NeoPixel& (0+255),w,b
  1723  003EF8  6ED9               	movwf	fsr2l,c
  1724  003EFA  6ADA               	clrf	fsr2h,c
  1725  003EFC  0E00               	movlw	high _NeoBlue
  1726  003EFE  22DA               	addwfc	fsr2h,f,c
  1727  003F00  0E00               	movlw	0
  1728  003F02  6EDF               	movwf	indf2,c
  1729  003F04  0E60               	movlw	low _NeoRed
  1730  003F06  258A               	addwf	NeoInit@NeoPixel& (0+255),w,b
  1731  003F08  6ED9               	movwf	fsr2l,c
  1732  003F0A  6ADA               	clrf	fsr2h,c
  1733  003F0C  0E00               	movlw	high _NeoRed
  1734  003F0E  22DA               	addwfc	fsr2h,f,c
  1735  003F10  0E00               	movlw	0
  1736  003F12  6EDF               	movwf	indf2,c
  1737  003F14  EFF0  F01F         	goto	l892
  1738  003F18                     l880:
  1739  003F18  FFFF               	dw	65535	; assembler added errata NOP
  1740                           
  1741                           ; BSR set to: 0
  1742  003F1A  0E07               	movlw	7
  1743  003F1C  0100               	movlb	0	; force () banked
  1744  003F1E  658A               	cpfsgt	NeoInit@NeoPixel& (0+255),b
  1745  003F20  EF94  F01F         	goto	u151
  1746  003F24  EF97  F01F         	goto	u150
  1747  003F28                     u151:
  1748  003F28  FFFF               	dw	65535	; assembler added errata NOP
  1749  003F2A  EFBE  F01F         	goto	l886
  1750  003F2E                     u150:
  1751  003F2E  FFFF               	dw	65535	; assembler added errata NOP
  1752  003F30                     
  1753                           ; BSR set to: 0
  1754  003F30  0E0A               	movlw	10
  1755  003F32  0100               	movlb	0	; force () banked
  1756  003F34  618A               	cpfslt	NeoInit@NeoPixel& (0+255),b
  1757  003F36  EF9F  F01F         	goto	u161
  1758  003F3A  EFA2  F01F         	goto	u160
  1759  003F3E                     u161:
  1760  003F3E  FFFF               	dw	65535	; assembler added errata NOP
  1761  003F40  EFBE  F01F         	goto	l886
  1762  003F44                     u160:
  1763  003F44  FFFF               	dw	65535	; assembler added errata NOP
  1764  003F46                     
  1765                           ; BSR set to: 0
  1766                           ;NeoPxl.c: 76:          { NeoGreen[NeoPixel] = 64; NeoBlue[NeoPixel] = 0; NeoRed[NeoPixe
      +                          l] = 64; }
  1767  003F46  0E78               	movlw	low _NeoGreen
  1768  003F48  0100               	movlb	0	; force () banked
  1769  003F4A  258A               	addwf	NeoInit@NeoPixel& (0+255),w,b
  1770  003F4C  6ED9               	movwf	fsr2l,c
  1771  003F4E  6ADA               	clrf	fsr2h,c
  1772  003F50  0E00               	movlw	high _NeoGreen
  1773  003F52  22DA               	addwfc	fsr2h,f,c
  1774  003F54  0E40               	movlw	64
  1775  003F56  6EDF               	movwf	indf2,c
  1776  003F58  0E6C               	movlw	low _NeoBlue
  1777  003F5A  258A               	addwf	NeoInit@NeoPixel& (0+255),w,b
  1778  003F5C  6ED9               	movwf	fsr2l,c
  1779  003F5E  6ADA               	clrf	fsr2h,c
  1780  003F60  0E00               	movlw	high _NeoBlue
  1781  003F62  22DA               	addwfc	fsr2h,f,c
  1782  003F64  0E00               	movlw	0
  1783  003F66  6EDF               	movwf	indf2,c
  1784  003F68  0E60               	movlw	low _NeoRed
  1785  003F6A  258A               	addwf	NeoInit@NeoPixel& (0+255),w,b
  1786  003F6C  6ED9               	movwf	fsr2l,c
  1787  003F6E  6ADA               	clrf	fsr2h,c
  1788  003F70  0E00               	movlw	high _NeoRed
  1789  003F72  22DA               	addwfc	fsr2h,f,c
  1790  003F74  0E40               	movlw	64
  1791  003F76  6EDF               	movwf	indf2,c
  1792  003F78  EFF0  F01F         	goto	l892
  1793  003F7C                     l886:
  1794  003F7C  FFFF               	dw	65535	; assembler added errata NOP
  1795                           
  1796                           ; BSR set to: 0
  1797  003F7E  0E09               	movlw	9
  1798  003F80  0100               	movlb	0	; force () banked
  1799  003F82  658A               	cpfsgt	NeoInit@NeoPixel& (0+255),b
  1800  003F84  EFC6  F01F         	goto	u171
  1801  003F88  EFC9  F01F         	goto	u170
  1802  003F8C                     u171:
  1803  003F8C  FFFF               	dw	65535	; assembler added errata NOP
  1804  003F8E  EFF0  F01F         	goto	l93
  1805  003F92                     u170:
  1806  003F92  FFFF               	dw	65535	; assembler added errata NOP
  1807  003F94                     
  1808                           ; BSR set to: 0
  1809  003F94  0E0C               	movlw	12
  1810  003F96  0100               	movlb	0	; force () banked
  1811  003F98  618A               	cpfslt	NeoInit@NeoPixel& (0+255),b
  1812  003F9A  EFD1  F01F         	goto	u181
  1813  003F9E  EFD4  F01F         	goto	u180
  1814  003FA2                     u181:
  1815  003FA2  FFFF               	dw	65535	; assembler added errata NOP
  1816  003FA4  EFF0  F01F         	goto	l93
  1817  003FA8                     u180:
  1818  003FA8  FFFF               	dw	65535	; assembler added errata NOP
  1819  003FAA                     
  1820                           ; BSR set to: 0
  1821                           ;NeoPxl.c: 78:          { NeoGreen[NeoPixel] = 64; NeoBlue[NeoPixel] = 64; NeoRed[NeoPix
      +                          el] = 0; }
  1822  003FAA  0E78               	movlw	low _NeoGreen
  1823  003FAC  0100               	movlb	0	; force () banked
  1824  003FAE  258A               	addwf	NeoInit@NeoPixel& (0+255),w,b
  1825  003FB0  6ED9               	movwf	fsr2l,c
  1826  003FB2  6ADA               	clrf	fsr2h,c
  1827  003FB4  0E00               	movlw	high _NeoGreen
  1828  003FB6  22DA               	addwfc	fsr2h,f,c
  1829  003FB8  0E40               	movlw	64
  1830  003FBA  6EDF               	movwf	indf2,c
  1831  003FBC  0E6C               	movlw	low _NeoBlue
  1832  003FBE  258A               	addwf	NeoInit@NeoPixel& (0+255),w,b
  1833  003FC0  6ED9               	movwf	fsr2l,c
  1834  003FC2  6ADA               	clrf	fsr2h,c
  1835  003FC4  0E00               	movlw	high _NeoBlue
  1836  003FC6  22DA               	addwfc	fsr2h,f,c
  1837  003FC8  0E40               	movlw	64
  1838  003FCA  6EDF               	movwf	indf2,c
  1839  003FCC  0E60               	movlw	low _NeoRed
  1840  003FCE  258A               	addwf	NeoInit@NeoPixel& (0+255),w,b
  1841  003FD0  6ED9               	movwf	fsr2l,c
  1842  003FD2  6ADA               	clrf	fsr2h,c
  1843  003FD4  0E00               	movlw	high _NeoRed
  1844  003FD6  22DA               	addwfc	fsr2h,f,c
  1845  003FD8  0E00               	movlw	0
  1846  003FDA  6EDF               	movwf	indf2,c
  1847  003FDC  EFF0  F01F         	goto	l892
  1848  003FE0                     l93:
  1849  003FE0                     l892:
  1850  003FE0  FFFF               	dw	65535	; assembler added errata NOP
  1851                           
  1852                           ; BSR set to: 0
  1853                           ;NeoPxl.c: 79:    }
  1854  003FE2  0100               	movlb	0	; force () banked
  1855  003FE4  2B8A               	incf	NeoInit@NeoPixel& (0+255),f,b
  1856  003FE6                     
  1857                           ; BSR set to: 0
  1858  003FE6  0E0B               	movlw	11
  1859  003FE8  0100               	movlb	0	; force () banked
  1860  003FEA  658A               	cpfsgt	NeoInit@NeoPixel& (0+255),b
  1861  003FEC  EFFA  F01F         	goto	u191
  1862  003FF0  EFFD  F01F         	goto	u190
  1863  003FF4                     u191:
  1864  003FF4  FFFF               	dw	65535	; assembler added errata NOP
  1865  003FF6  EFCF  F01E         	goto	l858
  1866  003FFA                     u190:
  1867  003FFA                     l99:
  1868  003FFA  FFFF               	dw	65535	; assembler added errata NOP
  1869                           
  1870                           ; BSR set to: 0
  1871  003FFC  0012               	return		;funcret
  1872  003FFE  FFFF               	dw	65535	; errata NOP
  1873  004000                     __end_of_NeoInit:
  1874                           	opt callstack 0
  1875                           
  1876 ;; *************** function _rxTrame *****************
  1877 ;; Defined at:
  1878 ;;		line 74 in file "main.c"
  1879 ;; Parameters:    Size  Location     Type
  1880 ;;  buffer          2    0[BANK0 ] PTR unsigned char 
  1881 ;;		 -> main@trame(6), 
  1882 ;; Auto vars:     Size  Location     Type
  1883 ;;  i               2    5[BANK0 ] int 
  1884 ;;  chkSum          2    8[BANK0 ] unsigned int 
  1885 ;;  c               1    7[BANK0 ] unsigned char 
  1886 ;;  retour          1    4[BANK0 ] _Bool 
  1887 ;; Return value:  Size  Location     Type
  1888 ;;                  1    wreg      _Bool 
  1889 ;; Registers used:
  1890 ;;		wreg, fsr2l, fsr2h, status,2, status,0
  1891 ;; Tracked objects:
  1892 ;;		On entry : 0/0
  1893 ;;		On exit  : 0/0
  1894 ;;		Unchanged: 0/0
  1895 ;; Data sizes:     COMRAM   BANK0   BANK2   BANK3   BANK4   BANK1   BANK5
  1896 ;;      Params:         0       2       0       0       0       0       0
  1897 ;;      Locals:         0       6       0       0       0       0       0
  1898 ;;      Temps:          0       2       0       0       0       0       0
  1899 ;;      Totals:         0      10       0       0       0       0       0
  1900 ;;Total ram usage:       10 bytes
  1901 ;; Hardware stack levels used:    1
  1902 ;; This function calls:
  1903 ;;		Nothing
  1904 ;; This function is called by:
  1905 ;;		_main
  1906 ;; This function uses a non-reentrant model
  1907 ;;
  1908                           
  1909                           	psect	text8
  1910  003BA4                     __ptext8:
  1911                           	opt callstack 0
  1912  003BA4                     _rxTrame:
  1913                           	opt callstack 0
  1914  003BA4  FFFF               	dw	65535	; assembler added errata NOP
  1915  003BA6                     
  1916                           ;main.c: 74: _Bool rxTrame(unsigned char* buffer);main.c: 75: {;main.c: 76:     _Bool re
      +                          tour = 0;
  1917  003BA6  0E00               	movlw	0
  1918  003BA8  0100               	movlb	0	; force () banked
  1919  003BAA  6F8E               	movwf	rxTrame@retour& (0+255),b
  1920                           
  1921                           ;main.c: 77:     unsigned char c;;main.c: 78:     static int indexTrame = 0;;main.c: 79:
      +                               unsigned int chkSum = 0;
  1922  003BAC  0E00               	movlw	0
  1923  003BAE  0100               	movlb	0	; force () banked
  1924  003BB0  6F93               	movwf	(rxTrame@chkSum+1)& (0+255),b
  1925  003BB2  0E00               	movlw	0
  1926  003BB4  6F92               	movwf	rxTrame@chkSum& (0+255),b
  1927  003BB6                     
  1928                           ; BSR set to: 0
  1929                           ;main.c: 80:     RCSTAbits.CREN = 1;
  1930  003BB6  88AB               	bsf	171,4,c	;volatile
  1931  003BB8                     
  1932                           ; BSR set to: 0
  1933                           ;main.c: 81:     if (PIR1bits.RC1IF == 1)
  1934  003BB8  AA9E               	btfss	158,5,c	;volatile
  1935  003BBA  EFE1  F01D         	goto	u771
  1936  003BBE  EFE4  F01D         	goto	u770
  1937  003BC2                     u771:
  1938  003BC2  FFFF               	dw	65535	; assembler added errata NOP
  1939  003BC4  EFB9  F01E         	goto	l42
  1940  003BC8                     u770:
  1941  003BC8  FFFF               	dw	65535	; assembler added errata NOP
  1942  003BCA                     
  1943                           ; BSR set to: 0
  1944                           ;main.c: 82:     {;main.c: 83:         c = RCREG;
  1945  003BCA  CFAE F091          	movff	4014,rxTrame@c	;volatile
  1946  003BCE                     
  1947                           ; BSR set to: 0
  1948                           ;main.c: 85:         if (c == 1 && indexTrame == 0)
  1949  003BCE  0100               	movlb	0	; force () banked
  1950  003BD0  0591               	decf	rxTrame@c& (0+255),w,b
  1951  003BD2  A4D8               	btfss	status,2,c
  1952  003BD4  EFEE  F01D         	goto	u781
  1953  003BD8  EFF1  F01D         	goto	u780
  1954  003BDC                     u781:
  1955  003BDC  FFFF               	dw	65535	; assembler added errata NOP
  1956  003BDE  EF09  F01E         	goto	l1308
  1957  003BE2                     u780:
  1958  003BE2  FFFF               	dw	65535	; assembler added errata NOP
  1959  003BE4                     
  1960                           ; BSR set to: 0
  1961  003BE4  0100               	movlb	0	; force () banked
  1962  003BE6  5188               	movf	rxTrame@indexTrame& (0+255),w,b
  1963  003BE8  1189               	iorwf	(rxTrame@indexTrame+1)& (0+255),w,b
  1964  003BEA  A4D8               	btfss	status,2,c
  1965  003BEC  EFFA  F01D         	goto	u791
  1966  003BF0  EFFD  F01D         	goto	u790
  1967  003BF4                     u791:
  1968  003BF4  FFFF               	dw	65535	; assembler added errata NOP
  1969  003BF6  EF09  F01E         	goto	l1308
  1970  003BFA                     u790:
  1971  003BFA  FFFF               	dw	65535	; assembler added errata NOP
  1972  003BFC                     
  1973                           ; BSR set to: 0
  1974                           ;main.c: 86:         {;main.c: 87:             buffer[0]=c;
  1975  003BFC  C08A  FFD9         	movff	rxTrame@buffer,fsr2l
  1976  003C00  C08B  FFDA         	movff	rxTrame@buffer+1,fsr2h
  1977  003C04  C091  FFDF         	movff	rxTrame@c,indf2
  1978  003C08                     
  1979                           ; BSR set to: 0
  1980                           ;main.c: 88:             indexTrame++;
  1981  003C08  0100               	movlb	0	; force () banked
  1982  003C0A  4B88               	infsnz	rxTrame@indexTrame& (0+255),f,b
  1983  003C0C  2B89               	incf	(rxTrame@indexTrame+1)& (0+255),f,b
  1984                           
  1985                           ;main.c: 89:         }
  1986  003C0E  EF3A  F01E         	goto	l1316
  1987  003C12                     l1308:
  1988  003C12  FFFF               	dw	65535	; assembler added errata NOP
  1989                           
  1990                           ; BSR set to: 0
  1991                           ;main.c: 91:         {;main.c: 92:             if (indexTrame > 0 && indexTrame < 6)
  1992  003C14  0100               	movlb	0	; force () banked
  1993  003C16  BF89               	btfsc	(rxTrame@indexTrame+1)& (0+255),7,b
  1994  003C18  EF16  F01E         	goto	u801
  1995  003C1C  5189               	movf	(rxTrame@indexTrame+1)& (0+255),w,b
  1996  003C1E  E109               	bnz	u800
  1997  003C20  0588               	decf	rxTrame@indexTrame& (0+255),w,b
  1998  003C22  A0D8               	btfss	status,0,c
  1999  003C24  EF16  F01E         	goto	u801
  2000  003C28  EF19  F01E         	goto	u800
  2001  003C2C                     u801:
  2002  003C2C  FFFF               	dw	65535	; assembler added errata NOP
  2003  003C2E  EF3A  F01E         	goto	l1316
  2004  003C32                     u800:
  2005  003C32  FFFF               	dw	65535	; assembler added errata NOP
  2006  003C34                     
  2007                           ; BSR set to: 0
  2008  003C34  0100               	movlb	0	; force () banked
  2009  003C36  BF89               	btfsc	(rxTrame@indexTrame+1)& (0+255),7,b
  2010  003C38  EF2A  F01E         	goto	u810
  2011  003C3C  5189               	movf	(rxTrame@indexTrame+1)& (0+255),w,b
  2012  003C3E  E107               	bnz	u811
  2013  003C40  0E06               	movlw	6
  2014  003C42  5D88               	subwf	rxTrame@indexTrame& (0+255),w,b
  2015  003C44  B0D8               	btfsc	status,0,c
  2016  003C46  EF27  F01E         	goto	u811
  2017  003C4A  EF2A  F01E         	goto	u810
  2018  003C4E                     u811:
  2019  003C4E  FFFF               	dw	65535	; assembler added errata NOP
  2020  003C50  EF3A  F01E         	goto	l1316
  2021  003C54                     u810:
  2022  003C54  FFFF               	dw	65535	; assembler added errata NOP
  2023  003C56                     
  2024                           ; BSR set to: 0
  2025                           ;main.c: 93:             {;main.c: 94:                 buffer[indexTrame]=c;
  2026  003C56  0100               	movlb	0	; force () banked
  2027  003C58  5188               	movf	rxTrame@indexTrame& (0+255),w,b
  2028  003C5A  0100               	movlb	0	; force () banked
  2029  003C5C  258A               	addwf	rxTrame@buffer& (0+255),w,b
  2030  003C5E  6ED9               	movwf	fsr2l,c
  2031  003C60  0100               	movlb	0	; force () banked
  2032  003C62  5189               	movf	(rxTrame@indexTrame+1)& (0+255),w,b
  2033  003C64  0100               	movlb	0	; force () banked
  2034  003C66  218B               	addwfc	(rxTrame@buffer+1)& (0+255),w,b
  2035  003C68  6EDA               	movwf	fsr2h,c
  2036  003C6A  C091  FFDF         	movff	rxTrame@c,indf2
  2037  003C6E                     
  2038                           ; BSR set to: 0
  2039                           ;main.c: 95:                 indexTrame++;
  2040  003C6E  0100               	movlb	0	; force () banked
  2041  003C70  4B88               	infsnz	rxTrame@indexTrame& (0+255),f,b
  2042  003C72  2B89               	incf	(rxTrame@indexTrame+1)& (0+255),f,b
  2043  003C74                     l1316:
  2044  003C74  FFFF               	dw	65535	; assembler added errata NOP
  2045                           
  2046                           ; BSR set to: 0
  2047                           ;main.c: 99:         if (indexTrame >= 6)
  2048  003C76  0100               	movlb	0	; force () banked
  2049  003C78  BF89               	btfsc	(rxTrame@indexTrame+1)& (0+255),7,b
  2050  003C7A  EF48  F01E         	goto	u821
  2051  003C7E  5189               	movf	(rxTrame@indexTrame+1)& (0+255),w,b
  2052  003C80  E10A               	bnz	u820
  2053  003C82  0E06               	movlw	6
  2054  003C84  5D88               	subwf	rxTrame@indexTrame& (0+255),w,b
  2055  003C86  A0D8               	btfss	status,0,c
  2056  003C88  EF48  F01E         	goto	u821
  2057  003C8C  EF4B  F01E         	goto	u820
  2058  003C90                     u821:
  2059  003C90  FFFF               	dw	65535	; assembler added errata NOP
  2060  003C92  EFB7  F01E         	goto	l1336
  2061  003C96                     u820:
  2062  003C96  FFFF               	dw	65535	; assembler added errata NOP
  2063  003C98                     
  2064                           ; BSR set to: 0
  2065                           ;main.c: 100:         {;main.c: 101:             for (int i = 1; i < 6 -1; i++)
  2066  003C98  0E00               	movlw	0
  2067  003C9A  0100               	movlb	0	; force () banked
  2068  003C9C  6F90               	movwf	(rxTrame@i+1)& (0+255),b
  2069  003C9E  0E01               	movlw	1
  2070  003CA0  6F8F               	movwf	rxTrame@i& (0+255),b
  2071  003CA2                     
  2072                           ; BSR set to: 0
  2073  003CA2  0100               	movlb	0	; force () banked
  2074  003CA4  BF90               	btfsc	(rxTrame@i+1)& (0+255),7,b
  2075  003CA6  EF5E  F01E         	goto	u831
  2076  003CAA  5190               	movf	(rxTrame@i+1)& (0+255),w,b
  2077  003CAC  E10A               	bnz	u830
  2078  003CAE  0E05               	movlw	5
  2079  003CB0  5D8F               	subwf	rxTrame@i& (0+255),w,b
  2080  003CB2  A0D8               	btfss	status,0,c
  2081  003CB4  EF5E  F01E         	goto	u831
  2082  003CB8  EF61  F01E         	goto	u830
  2083  003CBC                     u831:
  2084  003CBC  FFFF               	dw	65535	; assembler added errata NOP
  2085  003CBE  EF64  F01E         	goto	l1324
  2086  003CC2                     u830:
  2087  003CC2  FFFF               	dw	65535	; assembler added errata NOP
  2088  003CC4  EF8C  F01E         	goto	l1330
  2089  003CC8                     l1324:
  2090  003CC8  FFFF               	dw	65535	; assembler added errata NOP
  2091                           
  2092                           ; BSR set to: 0
  2093                           ;main.c: 102:             {;main.c: 103:                 chkSum = chkSum + (unsigned int
      +                          )buffer[i];
  2094  003CCA  0100               	movlb	0	; force () banked
  2095  003CCC  518F               	movf	rxTrame@i& (0+255),w,b
  2096  003CCE  0100               	movlb	0	; force () banked
  2097  003CD0  258A               	addwf	rxTrame@buffer& (0+255),w,b
  2098  003CD2  6ED9               	movwf	fsr2l,c
  2099  003CD4  0100               	movlb	0	; force () banked
  2100  003CD6  5190               	movf	(rxTrame@i+1)& (0+255),w,b
  2101  003CD8  0100               	movlb	0	; force () banked
  2102  003CDA  218B               	addwfc	(rxTrame@buffer+1)& (0+255),w,b
  2103  003CDC  6EDA               	movwf	fsr2h,c
  2104  003CDE  50DF               	movf	indf2,w,c
  2105  003CE0  0100               	movlb	0	; force () banked
  2106  003CE2  6F8C               	movwf	??_rxTrame& (0+255),b
  2107  003CE4  518C               	movf	??_rxTrame& (0+255),w,b
  2108  003CE6  0100               	movlb	0	; force () banked
  2109  003CE8  2592               	addwf	rxTrame@chkSum& (0+255),w,b
  2110  003CEA  6F92               	movwf	rxTrame@chkSum& (0+255),b
  2111  003CEC  0E00               	movlw	0
  2112  003CEE  2193               	addwfc	(rxTrame@chkSum+1)& (0+255),w,b
  2113  003CF0  6F93               	movwf	(rxTrame@chkSum+1)& (0+255),b
  2114  003CF2                     
  2115                           ; BSR set to: 0
  2116                           ;main.c: 104:             }
  2117  003CF2  0100               	movlb	0	; force () banked
  2118  003CF4  4B8F               	infsnz	rxTrame@i& (0+255),f,b
  2119  003CF6  2B90               	incf	(rxTrame@i+1)& (0+255),f,b
  2120  003CF8                     
  2121                           ; BSR set to: 0
  2122  003CF8  0100               	movlb	0	; force () banked
  2123  003CFA  BF90               	btfsc	(rxTrame@i+1)& (0+255),7,b
  2124  003CFC  EF89  F01E         	goto	u841
  2125  003D00  5190               	movf	(rxTrame@i+1)& (0+255),w,b
  2126  003D02  E10A               	bnz	u840
  2127  003D04  0E05               	movlw	5
  2128  003D06  5D8F               	subwf	rxTrame@i& (0+255),w,b
  2129  003D08  A0D8               	btfss	status,0,c
  2130  003D0A  EF89  F01E         	goto	u841
  2131  003D0E  EF8C  F01E         	goto	u840
  2132  003D12                     u841:
  2133  003D12  FFFF               	dw	65535	; assembler added errata NOP
  2134  003D14  EF64  F01E         	goto	l1324
  2135  003D18                     u840:
  2136  003D18                     l1330:
  2137  003D18  FFFF               	dw	65535	; assembler added errata NOP
  2138                           
  2139                           ; BSR set to: 0
  2140                           ;main.c: 105:             chkSum = chkSum & 0x00FF;
  2141  003D1A  0100               	movlb	0	; force () banked
  2142  003D1C  5192               	movf	rxTrame@chkSum& (0+255),w,b
  2143  003D1E  6F92               	movwf	rxTrame@chkSum& (0+255),b
  2144  003D20  6B93               	clrf	(rxTrame@chkSum+1)& (0+255),b
  2145  003D22                     
  2146                           ; BSR set to: 0
  2147                           ;main.c: 106:             if (chkSum == buffer[6 -1])
  2148  003D22  0100               	movlb	0	; force () banked
  2149  003D24  EE20 F005          	lfsr	2,5
  2150  003D28  518A               	movf	rxTrame@buffer& (0+255),w,b
  2151  003D2A  26D9               	addwf	fsr2l,f,c
  2152  003D2C  518B               	movf	(rxTrame@buffer+1)& (0+255),w,b
  2153  003D2E  22DA               	addwfc	fsr2h,f,c
  2154  003D30  50DF               	movf	indf2,w,c
  2155  003D32  0100               	movlb	0	; force () banked
  2156  003D34  6F8C               	movwf	??_rxTrame& (0+255),b
  2157  003D36  6B8D               	clrf	(??_rxTrame+1)& (0+255),b
  2158  003D38  0100               	movlb	0	; force () banked
  2159  003D3A  5192               	movf	rxTrame@chkSum& (0+255),w,b
  2160  003D3C  0100               	movlb	0	; force () banked
  2161  003D3E  198C               	xorwf	??_rxTrame& (0+255),w,b
  2162  003D40  E109               	bnz	u851
  2163  003D42  0100               	movlb	0	; force () banked
  2164  003D44  5193               	movf	(rxTrame@chkSum+1)& (0+255),w,b
  2165  003D46  0100               	movlb	0	; force () banked
  2166  003D48  198D               	xorwf	(??_rxTrame+1)& (0+255),w,b
  2167  003D4A  A4D8               	btfss	status,2,c
  2168  003D4C  EFAA  F01E         	goto	u851
  2169  003D50  EFAD  F01E         	goto	u850
  2170  003D54                     u851:
  2171  003D54  FFFF               	dw	65535	; assembler added errata NOP
  2172  003D56  EFB1  F01E         	goto	l49
  2173  003D5A                     u850:
  2174  003D5A  FFFF               	dw	65535	; assembler added errata NOP
  2175  003D5C                     
  2176                           ; BSR set to: 0
  2177                           ;main.c: 107:                 retour = 1;
  2178  003D5C  0E01               	movlw	1
  2179  003D5E  0100               	movlb	0	; force () banked
  2180  003D60  6F8E               	movwf	rxTrame@retour& (0+255),b
  2181  003D62                     l49:
  2182  003D62  FFFF               	dw	65535	; assembler added errata NOP
  2183                           
  2184                           ; BSR set to: 0
  2185                           ;main.c: 108:             indexTrame=0;
  2186  003D64  0E00               	movlw	0
  2187  003D66  0100               	movlb	0	; force () banked
  2188  003D68  6F89               	movwf	(rxTrame@indexTrame+1)& (0+255),b
  2189  003D6A  0E00               	movlw	0
  2190  003D6C  6F88               	movwf	rxTrame@indexTrame& (0+255),b
  2191  003D6E                     l1336:
  2192  003D6E  FFFF               	dw	65535	; assembler added errata NOP
  2193                           
  2194                           ; BSR set to: 0
  2195                           ;main.c: 111:         RCSTAbits.CREN = 0;
  2196  003D70  98AB               	bcf	171,4,c	;volatile
  2197  003D72                     l42:
  2198  003D72  FFFF               	dw	65535	; assembler added errata NOP
  2199                           
  2200                           ; BSR set to: 0
  2201                           ;main.c: 114:     return retour;
  2202  003D74  0100               	movlb	0	; force () banked
  2203  003D76  518E               	movf	rxTrame@retour& (0+255),w,b
  2204  003D78                     
  2205                           ; BSR set to: 0
  2206  003D78  0012               	return		;funcret
  2207  003D7A  FFFF               	dw	65535	; errata NOP
  2208  003D7C                     __end_of_rxTrame:
  2209                           	opt callstack 0
  2210                           
  2211 ;; *************** function _initialisation *****************
  2212 ;; Defined at:
  2213 ;;		line 157 in file "main.c"
  2214 ;; Parameters:    Size  Location     Type
  2215 ;;		None
  2216 ;; Auto vars:     Size  Location     Type
  2217 ;;		None
  2218 ;; Return value:  Size  Location     Type
  2219 ;;                  1    wreg      void 
  2220 ;; Registers used:
  2221 ;;		wreg, status,2
  2222 ;; Tracked objects:
  2223 ;;		On entry : 0/0
  2224 ;;		On exit  : 0/0
  2225 ;;		Unchanged: 0/0
  2226 ;; Data sizes:     COMRAM   BANK0   BANK2   BANK3   BANK4   BANK1   BANK5
  2227 ;;      Params:         0       0       0       0       0       0       0
  2228 ;;      Locals:         0       0       0       0       0       0       0
  2229 ;;      Temps:          0       0       0       0       0       0       0
  2230 ;;      Totals:         0       0       0       0       0       0       0
  2231 ;;Total ram usage:        0 bytes
  2232 ;; Hardware stack levels used:    1
  2233 ;; This function calls:
  2234 ;;		Nothing
  2235 ;; This function is called by:
  2236 ;;		_main
  2237 ;; This function uses a non-reentrant model
  2238 ;;
  2239                           
  2240                           	psect	text9
  2241  003384                     __ptext9:
  2242                           	opt callstack 0
  2243  003384                     _initialisation:
  2244                           	opt callstack 0
  2245  003384  FFFF               	dw	65535	; assembler added errata NOP
  2246  003386                     
  2247                           ;main.c: 159:     TRISD = 0;
  2248  003386  0E00               	movlw	0
  2249  003388  6E95               	movwf	149,c	;volatile
  2250                           
  2251                           ;main.c: 164:     SPBRG = 64;
  2252  00338A  0E40               	movlw	64
  2253  00338C  6EAF               	movwf	175,c	;volatile
  2254  00338E                     
  2255                           ;main.c: 168:     TXSTAbits.BRGH = 0;
  2256  00338E  94AC               	bcf	172,2,c	;volatile
  2257  003390                     
  2258                           ;main.c: 172:     RCSTAbits.SPEN = 1;
  2259  003390  8EAB               	bsf	171,7,c	;volatile
  2260  003392                     
  2261                           ;main.c: 173:     TXSTAbits.SYNC = 0;
  2262  003392  98AC               	bcf	172,4,c	;volatile
  2263  003394  0012               	return		;funcret
  2264  003396  FFFF               	dw	65535	; errata NOP
  2265  003398                     __end_of_initialisation:
  2266                           	opt callstack 0
  2267                           
  2268 ;; *************** function _NeoDraw *****************
  2269 ;; Defined at:
  2270 ;;		line 123 in file "NeoPxl.c"
  2271 ;; Parameters:    Size  Location     Type
  2272 ;;		None
  2273 ;; Auto vars:     Size  Location     Type
  2274 ;;  BitCount        1    5[BANK0 ] char 
  2275 ;;  NeoPixel        1    4[BANK0 ] unsigned char 
  2276 ;; Return value:  Size  Location     Type
  2277 ;;                  1    wreg      void 
  2278 ;; Registers used:
  2279 ;;		wreg, fsr2l, fsr2h, status,2, status,0, cstack
  2280 ;; Tracked objects:
  2281 ;;		On entry : 0/0
  2282 ;;		On exit  : 0/0
  2283 ;;		Unchanged: 0/0
  2284 ;; Data sizes:     COMRAM   BANK0   BANK2   BANK3   BANK4   BANK1   BANK5
  2285 ;;      Params:         0       0       0       0       0       0       0
  2286 ;;      Locals:         0       2       0       0       0       0       0
  2287 ;;      Temps:          0       3       0       0       0       0       0
  2288 ;;      Totals:         0       5       0       0       0       0       0
  2289 ;;Total ram usage:        5 bytes
  2290 ;; Hardware stack levels used:    1
  2291 ;; Hardware stack levels required when called:    1
  2292 ;; This function calls:
  2293 ;;		_NeoBit
  2294 ;; This function is called by:
  2295 ;;		_main
  2296 ;; This function uses a non-reentrant model
  2297 ;;
  2298                           
  2299                           	psect	text10
  2300  003870                     __ptext10:
  2301                           	opt callstack 0
  2302  003870                     _NeoDraw:
  2303                           	opt callstack 0
  2304  003870  FFFF               	dw	65535	; assembler added errata NOP
  2305  003872                     
  2306                           ;NeoPxl.c: 125:    uint8_t NeoPixel;;NeoPxl.c: 126:    int8_t BitCount;;NeoPxl.c: 130:  
      +                            for (NeoPixel = 0; NeoPixel < 12; NeoPixel++)
  2307  003872  0E00               	movlw	0
  2308  003874  0100               	movlb	0	; force () banked
  2309  003876  6F8E               	movwf	NeoDraw@NeoPixel& (0+255),b
  2310  003878                     
  2311                           ; BSR set to: 0
  2312  003878  0E0B               	movlw	11
  2313  00387A  0100               	movlb	0	; force () banked
  2314  00387C  658E               	cpfsgt	NeoDraw@NeoPixel& (0+255),b
  2315  00387E  EF43  F01C         	goto	u361
  2316  003882  EF46  F01C         	goto	u360
  2317  003886                     u361:
  2318  003886  FFFF               	dw	65535	; assembler added errata NOP
  2319  003888  EF49  F01C         	goto	l1018
  2320  00388C                     u360:
  2321  00388C  FFFF               	dw	65535	; assembler added errata NOP
  2322  00388E  EF01  F01D         	goto	l108
  2323  003892                     l1018:
  2324  003892  FFFF               	dw	65535	; assembler added errata NOP
  2325                           
  2326                           ; BSR set to: 0
  2327                           ;NeoPxl.c: 131:     {;NeoPxl.c: 132:       for (BitCount = 7; BitCount >= 0; BitCount--)
  2328  003894  0E07               	movlw	7
  2329  003896  0100               	movlb	0	; force () banked
  2330  003898  6F8F               	movwf	NeoDraw@BitCount& (0+255),b
  2331  00389A                     
  2332                           ; BSR set to: 0
  2333  00389A  0100               	movlb	0	; force () banked
  2334  00389C  BF8F               	btfsc	NeoDraw@BitCount& (0+255),7,b
  2335  00389E  EF56  F01C         	goto	u370
  2336  0038A2  EF53  F01C         	goto	u371
  2337  0038A6                     u371:
  2338  0038A6  FFFF               	dw	65535	; assembler added errata NOP
  2339  0038A8  EF59  F01C         	goto	l1024
  2340  0038AC                     u370:
  2341  0038AC  FFFF               	dw	65535	; assembler added errata NOP
  2342  0038AE  EF82  F01C         	goto	l1030
  2343  0038B2                     l1024:
  2344  0038B2  FFFF               	dw	65535	; assembler added errata NOP
  2345                           
  2346                           ; BSR set to: 0
  2347                           ;NeoPxl.c: 133:           NeoBit(NeoGreen[NeoPixel] & (1 <<(BitCount)));
  2348  0038B4  0E78               	movlw	low _NeoGreen
  2349  0038B6  0100               	movlb	0	; force () banked
  2350  0038B8  258E               	addwf	NeoDraw@NeoPixel& (0+255),w,b
  2351  0038BA  6ED9               	movwf	fsr2l,c
  2352  0038BC  6ADA               	clrf	fsr2h,c
  2353  0038BE  0E00               	movlw	high _NeoGreen
  2354  0038C0  22DA               	addwfc	fsr2h,f,c
  2355  0038C2  50DF               	movf	indf2,w,c
  2356  0038C4  0100               	movlb	0	; force () banked
  2357  0038C6  6F8B               	movwf	??_NeoDraw& (0+255),b
  2358  0038C8  C08F  F08C         	movff	NeoDraw@BitCount,??_NeoDraw+1
  2359  0038CC  0E01               	movlw	1
  2360  0038CE  6F8D               	movwf	(??_NeoDraw+2)& (0+255),b
  2361  0038D0  2B8C               	incf	(??_NeoDraw+1)& (0+255),f,b
  2362  0038D2  EF6E  F01C         	goto	u384
  2363  0038D6                     u385:
  2364  0038D6  FFFF               	dw	65535	; assembler added errata NOP
  2365  0038D8  90D8               	bcf	status,0,c
  2366  0038DA  378D               	rlcf	(??_NeoDraw+2)& (0+255),f,b
  2367  0038DC                     u384:
  2368  0038DC  FFFF               	dw	65535	; assembler added errata NOP
  2369  0038DE  2F8C               	decfsz	(??_NeoDraw+1)& (0+255),f,b
  2370  0038E0  EF6B  F01C         	goto	u385
  2371  0038E4  0100               	movlb	0	; force () banked
  2372  0038E6  518D               	movf	(??_NeoDraw+2)& (0+255),w,b
  2373  0038E8  158B               	andwf	??_NeoDraw& (0+255),w,b
  2374  0038EA  ECCC  F019         	call	_NeoBit
  2375  0038EE  0100               	movlb	0	; force () banked
  2376  0038F0  078F               	decf	NeoDraw@BitCount& (0+255),f,b
  2377  0038F2                     
  2378                           ; BSR set to: 0
  2379  0038F2  0100               	movlb	0	; force () banked
  2380  0038F4  BF8F               	btfsc	NeoDraw@BitCount& (0+255),7,b
  2381  0038F6  EF82  F01C         	goto	u390
  2382  0038FA  EF7F  F01C         	goto	u391
  2383  0038FE                     u391:
  2384  0038FE  FFFF               	dw	65535	; assembler added errata NOP
  2385  003900  EF59  F01C         	goto	l1024
  2386  003904                     u390:
  2387  003904                     l1030:
  2388  003904  FFFF               	dw	65535	; assembler added errata NOP
  2389                           
  2390                           ; BSR set to: 0
  2391                           ;NeoPxl.c: 134:       for (BitCount = 7; BitCount >= 0; BitCount--)
  2392  003906  0E07               	movlw	7
  2393  003908  0100               	movlb	0	; force () banked
  2394  00390A  6F8F               	movwf	NeoDraw@BitCount& (0+255),b
  2395  00390C                     
  2396                           ; BSR set to: 0
  2397  00390C  0100               	movlb	0	; force () banked
  2398  00390E  BF8F               	btfsc	NeoDraw@BitCount& (0+255),7,b
  2399  003910  EF8F  F01C         	goto	u400
  2400  003914  EF8C  F01C         	goto	u401
  2401  003918                     u401:
  2402  003918  FFFF               	dw	65535	; assembler added errata NOP
  2403  00391A  EF92  F01C         	goto	l1036
  2404  00391E                     u400:
  2405  00391E  FFFF               	dw	65535	; assembler added errata NOP
  2406  003920  EFBB  F01C         	goto	l1042
  2407  003924                     l1036:
  2408  003924  FFFF               	dw	65535	; assembler added errata NOP
  2409                           
  2410                           ; BSR set to: 0
  2411                           ;NeoPxl.c: 135:          NeoBit(NeoRed[NeoPixel] & (1 <<(BitCount)));
  2412  003926  0E60               	movlw	low _NeoRed
  2413  003928  0100               	movlb	0	; force () banked
  2414  00392A  258E               	addwf	NeoDraw@NeoPixel& (0+255),w,b
  2415  00392C  6ED9               	movwf	fsr2l,c
  2416  00392E  6ADA               	clrf	fsr2h,c
  2417  003930  0E00               	movlw	high _NeoRed
  2418  003932  22DA               	addwfc	fsr2h,f,c
  2419  003934  50DF               	movf	indf2,w,c
  2420  003936  0100               	movlb	0	; force () banked
  2421  003938  6F8B               	movwf	??_NeoDraw& (0+255),b
  2422  00393A  C08F  F08C         	movff	NeoDraw@BitCount,??_NeoDraw+1
  2423  00393E  0E01               	movlw	1
  2424  003940  6F8D               	movwf	(??_NeoDraw+2)& (0+255),b
  2425  003942  2B8C               	incf	(??_NeoDraw+1)& (0+255),f,b
  2426  003944  EFA7  F01C         	goto	u414
  2427  003948                     u415:
  2428  003948  FFFF               	dw	65535	; assembler added errata NOP
  2429  00394A  90D8               	bcf	status,0,c
  2430  00394C  378D               	rlcf	(??_NeoDraw+2)& (0+255),f,b
  2431  00394E                     u414:
  2432  00394E  FFFF               	dw	65535	; assembler added errata NOP
  2433  003950  2F8C               	decfsz	(??_NeoDraw+1)& (0+255),f,b
  2434  003952  EFA4  F01C         	goto	u415
  2435  003956  0100               	movlb	0	; force () banked
  2436  003958  518D               	movf	(??_NeoDraw+2)& (0+255),w,b
  2437  00395A  158B               	andwf	??_NeoDraw& (0+255),w,b
  2438  00395C  ECCC  F019         	call	_NeoBit
  2439  003960  0100               	movlb	0	; force () banked
  2440  003962  078F               	decf	NeoDraw@BitCount& (0+255),f,b
  2441  003964                     
  2442                           ; BSR set to: 0
  2443  003964  0100               	movlb	0	; force () banked
  2444  003966  BF8F               	btfsc	NeoDraw@BitCount& (0+255),7,b
  2445  003968  EFBB  F01C         	goto	u420
  2446  00396C  EFB8  F01C         	goto	u421
  2447  003970                     u421:
  2448  003970  FFFF               	dw	65535	; assembler added errata NOP
  2449  003972  EF92  F01C         	goto	l1036
  2450  003976                     u420:
  2451  003976                     l1042:
  2452  003976  FFFF               	dw	65535	; assembler added errata NOP
  2453                           
  2454                           ; BSR set to: 0
  2455                           ;NeoPxl.c: 136:       for (BitCount = 7; BitCount >= 0; BitCount--)
  2456  003978  0E07               	movlw	7
  2457  00397A  0100               	movlb	0	; force () banked
  2458  00397C  6F8F               	movwf	NeoDraw@BitCount& (0+255),b
  2459  00397E                     
  2460                           ; BSR set to: 0
  2461  00397E  0100               	movlb	0	; force () banked
  2462  003980  BF8F               	btfsc	NeoDraw@BitCount& (0+255),7,b
  2463  003982  EFC8  F01C         	goto	u430
  2464  003986  EFC5  F01C         	goto	u431
  2465  00398A                     u431:
  2466  00398A  FFFF               	dw	65535	; assembler added errata NOP
  2467  00398C  EFCB  F01C         	goto	l1048
  2468  003990                     u430:
  2469  003990  FFFF               	dw	65535	; assembler added errata NOP
  2470  003992  EFF4  F01C         	goto	l1054
  2471  003996                     l1048:
  2472  003996  FFFF               	dw	65535	; assembler added errata NOP
  2473                           
  2474                           ; BSR set to: 0
  2475                           ;NeoPxl.c: 137:          NeoBit(NeoBlue[NeoPixel] & (1 <<(BitCount)));
  2476  003998  0E6C               	movlw	low _NeoBlue
  2477  00399A  0100               	movlb	0	; force () banked
  2478  00399C  258E               	addwf	NeoDraw@NeoPixel& (0+255),w,b
  2479  00399E  6ED9               	movwf	fsr2l,c
  2480  0039A0  6ADA               	clrf	fsr2h,c
  2481  0039A2  0E00               	movlw	high _NeoBlue
  2482  0039A4  22DA               	addwfc	fsr2h,f,c
  2483  0039A6  50DF               	movf	indf2,w,c
  2484  0039A8  0100               	movlb	0	; force () banked
  2485  0039AA  6F8B               	movwf	??_NeoDraw& (0+255),b
  2486  0039AC  C08F  F08C         	movff	NeoDraw@BitCount,??_NeoDraw+1
  2487  0039B0  0E01               	movlw	1
  2488  0039B2  6F8D               	movwf	(??_NeoDraw+2)& (0+255),b
  2489  0039B4  2B8C               	incf	(??_NeoDraw+1)& (0+255),f,b
  2490  0039B6  EFE0  F01C         	goto	u444
  2491  0039BA                     u445:
  2492  0039BA  FFFF               	dw	65535	; assembler added errata NOP
  2493  0039BC  90D8               	bcf	status,0,c
  2494  0039BE  378D               	rlcf	(??_NeoDraw+2)& (0+255),f,b
  2495  0039C0                     u444:
  2496  0039C0  FFFF               	dw	65535	; assembler added errata NOP
  2497  0039C2  2F8C               	decfsz	(??_NeoDraw+1)& (0+255),f,b
  2498  0039C4  EFDD  F01C         	goto	u445
  2499  0039C8  0100               	movlb	0	; force () banked
  2500  0039CA  518D               	movf	(??_NeoDraw+2)& (0+255),w,b
  2501  0039CC  158B               	andwf	??_NeoDraw& (0+255),w,b
  2502  0039CE  ECCC  F019         	call	_NeoBit
  2503  0039D2  0100               	movlb	0	; force () banked
  2504  0039D4  078F               	decf	NeoDraw@BitCount& (0+255),f,b
  2505  0039D6                     
  2506                           ; BSR set to: 0
  2507  0039D6  0100               	movlb	0	; force () banked
  2508  0039D8  BF8F               	btfsc	NeoDraw@BitCount& (0+255),7,b
  2509  0039DA  EFF4  F01C         	goto	u450
  2510  0039DE  EFF1  F01C         	goto	u451
  2511  0039E2                     u451:
  2512  0039E2  FFFF               	dw	65535	; assembler added errata NOP
  2513  0039E4  EFCB  F01C         	goto	l1048
  2514  0039E8                     u450:
  2515  0039E8                     l1054:
  2516  0039E8  FFFF               	dw	65535	; assembler added errata NOP
  2517                           
  2518                           ; BSR set to: 0
  2519                           ;NeoPxl.c: 138:     }
  2520  0039EA  0100               	movlb	0	; force () banked
  2521  0039EC  2B8E               	incf	NeoDraw@NeoPixel& (0+255),f,b
  2522  0039EE                     
  2523                           ; BSR set to: 0
  2524  0039EE  0E0B               	movlw	11
  2525  0039F0  0100               	movlb	0	; force () banked
  2526  0039F2  658E               	cpfsgt	NeoDraw@NeoPixel& (0+255),b
  2527  0039F4  EFFE  F01C         	goto	u461
  2528  0039F8  EF01  F01D         	goto	u460
  2529  0039FC                     u461:
  2530  0039FC  FFFF               	dw	65535	; assembler added errata NOP
  2531  0039FE  EF49  F01C         	goto	l1018
  2532  003A02                     u460:
  2533  003A02                     l108:
  2534  003A02  FFFF               	dw	65535	; assembler added errata NOP
  2535                           
  2536                           ; BSR set to: 0
  2537                           ;NeoPxl.c: 139:    PORTDbits.RD0 = 0;
  2538  003A04  9083               	bcf	131,0,c	;volatile
  2539  003A06                     
  2540                           ; BSR set to: 0
  2541  003A06  0012               	return		;funcret
  2542  003A08  FFFF               	dw	65535	; errata NOP
  2543  003A0A                     __end_of_NeoDraw:
  2544                           	opt callstack 0
  2545                           
  2546 ;; *************** function _NeoBit *****************
  2547 ;; Defined at:
  2548 ;;		line 91 in file "NeoPxl.c"
  2549 ;; Parameters:    Size  Location     Type
  2550 ;;  Bit             1    wreg     unsigned char 
  2551 ;; Auto vars:     Size  Location     Type
  2552 ;;  Bit             1    0[BANK0 ] unsigned char 
  2553 ;; Return value:  Size  Location     Type
  2554 ;;                  1    wreg      void 
  2555 ;; Registers used:
  2556 ;;		wreg, status,2
  2557 ;; Tracked objects:
  2558 ;;		On entry : 0/0
  2559 ;;		On exit  : 0/0
  2560 ;;		Unchanged: 0/0
  2561 ;; Data sizes:     COMRAM   BANK0   BANK2   BANK3   BANK4   BANK1   BANK5
  2562 ;;      Params:         0       0       0       0       0       0       0
  2563 ;;      Locals:         0       1       0       0       0       0       0
  2564 ;;      Temps:          0       0       0       0       0       0       0
  2565 ;;      Totals:         0       1       0       0       0       0       0
  2566 ;;Total ram usage:        1 bytes
  2567 ;; Hardware stack levels used:    1
  2568 ;; This function calls:
  2569 ;;		Nothing
  2570 ;; This function is called by:
  2571 ;;		_NeoDraw
  2572 ;; This function uses a non-reentrant model
  2573 ;;
  2574                           
  2575                           	psect	text11
  2576  003398                     __ptext11:
  2577                           	opt callstack 0
  2578  003398                     _NeoBit:
  2579                           	opt callstack 0
  2580  003398  FFFF               	dw	65535	; assembler added errata NOP
  2581                           
  2582                           ; BSR set to: 0
  2583                           ;incstack = 0
  2584                           ;NeoBit@Bit stored from wreg
  2585  00339A  0100               	movlb	0	; force () banked
  2586  00339C  6F8A               	movwf	NeoBit@Bit& (0+255),b
  2587  00339E                     
  2588                           ;NeoPxl.c: 91: void NeoBit(uint8_t Bit);NeoPxl.c: 92: {;NeoPxl.c: 93:    if (Bit != 0)
  2589  00339E  0100               	movlb	0	; force () banked
  2590  0033A0  518A               	movf	NeoBit@Bit& (0+255),w,b
  2591  0033A2  B4D8               	btfsc	status,2,c
  2592  0033A4  EFD6  F019         	goto	u291
  2593  0033A8  EFD9  F019         	goto	u290
  2594  0033AC                     u291:
  2595  0033AC  FFFF               	dw	65535	; assembler added errata NOP
  2596  0033AE  EFE5  F019         	goto	l102
  2597  0033B2                     u290:
  2598  0033B2  FFFF               	dw	65535	; assembler added errata NOP
  2599  0033B4                     
  2600                           ; BSR set to: 0
  2601                           ;NeoPxl.c: 94:    {;NeoPxl.c: 95:       PORTDbits.RD0 = 1;
  2602  0033B4  8083               	bsf	131,0,c	;volatile
  2603                           
  2604                           ;NeoPxl.c: 96:       __nop();
  2605  0033B6  F000               	nop	
  2606                           
  2607                           ;NeoPxl.c: 97:       __nop();
  2608  0033B8  F000               	nop	
  2609                           
  2610                           ;NeoPxl.c: 98:       __nop();
  2611  0033BA  F000               	nop	
  2612                           
  2613                           ;NeoPxl.c: 99:       __nop();
  2614  0033BC  F000               	nop	
  2615                           
  2616                           ;NeoPxl.c: 100:       __nop();
  2617  0033BE  F000               	nop	
  2618                           
  2619                           ;NeoPxl.c: 101:       __nop();
  2620  0033C0  F000               	nop	
  2621                           
  2622                           ;NeoPxl.c: 102:       __nop();
  2623  0033C2  F000               	nop	
  2624                           
  2625                           ;NeoPxl.c: 103:       PORTDbits.RD0 = 0;
  2626  0033C4  9083               	bcf	131,0,c	;volatile
  2627                           
  2628                           ;NeoPxl.c: 104:    }
  2629  0033C6  EFEB  F019         	goto	l104
  2630  0033CA                     l102:
  2631  0033CA  FFFF               	dw	65535	; assembler added errata NOP
  2632                           
  2633                           ; BSR set to: 0
  2634                           ;NeoPxl.c: 106:    {;NeoPxl.c: 107:        PORTDbits.RD0 = 1;
  2635  0033CC  8083               	bsf	131,0,c	;volatile
  2636                           
  2637                           ;NeoPxl.c: 108:        __nop();
  2638  0033CE  F000               	nop	
  2639                           
  2640                           ;NeoPxl.c: 109:        __nop();
  2641  0033D0  F000               	nop	
  2642                           
  2643                           ;NeoPxl.c: 110:        __nop();
  2644  0033D2  F000               	nop	
  2645                           
  2646                           ;NeoPxl.c: 111:        PORTDbits.RD0 = 0;
  2647  0033D4  9083               	bcf	131,0,c	;volatile
  2648  0033D6                     l104:
  2649  0033D6  FFFF               	dw	65535	; assembler added errata NOP
  2650  0033D8  0012               	return		;funcret
  2651  0033DA  FFFF               	dw	65535	; errata NOP
  2652  0033DC                     __end_of_NeoBit:
  2653                           	opt callstack 0
  2654  0033DC  FFFF               	dw	65535	; assembler added errata NOP
  2655                           
  2656                           	psect	param0
  2657  0000                     tosu	equ	0xFFF
  2658                           tosh	equ	0xFFE
  2659                           tosl	equ	0xFFD
  2660                           stkptr	equ	0xFFC
  2661                           pclatu	equ	0xFFB
  2662                           pclath	equ	0xFFA
  2663                           pcl	equ	0xFF9
  2664                           tblptru	equ	0xFF8
  2665                           tblptrh	equ	0xFF7
  2666                           tblptrl	equ	0xFF6
  2667                           tablat	equ	0xFF5
  2668                           prodh	equ	0xFF4
  2669                           prodl	equ	0xFF3
  2670                           indf0	equ	0xFEF
  2671                           postinc0	equ	0xFEE
  2672                           postdec0	equ	0xFED
  2673                           preinc0	equ	0xFEC
  2674                           plusw0	equ	0xFEB
  2675                           fsr0h	equ	0xFEA
  2676                           fsr0l	equ	0xFE9
  2677                           wreg	equ	0xFE8
  2678                           indf1	equ	0xFE7
  2679                           postinc1	equ	0xFE6
  2680                           postdec1	equ	0xFE5
  2681                           preinc1	equ	0xFE4
  2682                           plusw1	equ	0xFE3
  2683                           fsr1h	equ	0xFE2
  2684                           fsr1l	equ	0xFE1
  2685                           bsr	equ	0xFE0
  2686                           indf2	equ	0xFDF
  2687                           postinc2	equ	0xFDE
  2688                           postdec2	equ	0xFDD
  2689                           preinc2	equ	0xFDC
  2690                           plusw2	equ	0xFDB
  2691                           fsr2h	equ	0xFDA
  2692                           fsr2l	equ	0xFD9
  2693                           status	equ	0xFD8


Data Sizes:
    Strings     0
    Constant    0
    Data        0
    BSS         42
    Persistent  0
    Stack       0

Auto Spaces:
    Space          Size  Autos    Used
    COMRAM           95      0       0
    BANK0           160     21      63
    BANK2           256      0       0
    BANK3           256      0       0
    BANK4           256      0       0
    BANK1           256      0       0
    BANK5           239      0       0

Pointer List with Targets:

    traiteTrame@buffer	PTR unsigned char  size(2) Largest target is 6
		 -> main@trame(BANK0[6]), 

    rxTrame@buffer	PTR unsigned char  size(2) Largest target is 6
		 -> main@trame(BANK0[6]), 


Critical Paths under _main in COMRAM

    None.

Critical Paths under _main in BANK0

    _main->_traiteTrame
    _traiteTrame->___awdiv
    _NeoWave->___awmod
    _NeoDraw->_NeoBit

Critical Paths under _main in BANK2

    None.

Critical Paths under _main in BANK3

    None.

Critical Paths under _main in BANK4

    None.

Critical Paths under _main in BANK1

    None.

Critical Paths under _main in BANK5

    None.

Call Graph Tables:

 ---------------------------------------------------------------------------------
 (Depth) Function   	        Calls       Base Space   Used Autos Params    Refs
 ---------------------------------------------------------------------------------
 (0) _main                                                 6     6      0    4015
                                             15 BANK0      6     6      0
                            _NeoDraw
                            _NeoInit
                     _initialisation
                            _rxTrame
                        _traiteTrame
 ---------------------------------------------------------------------------------
 (1) _traiteTrame                                          7     5      2    2879
                                              8 BANK0      7     5      2
                            _NeoInit
                          _NeoRotate
                        _NeoSetColor
                            _NeoWave
                            ___awdiv
 ---------------------------------------------------------------------------------
 (2) ___awdiv                                              8     4      4     756
                                              0 BANK0      8     4      4
 ---------------------------------------------------------------------------------
 (2) _NeoWave                                              1     1      0     930
                                              6 BANK0      1     1      0
                            ___awmod
 ---------------------------------------------------------------------------------
 (3) ___awmod                                              6     2      4     752
                                              0 BANK0      6     2      4
 ---------------------------------------------------------------------------------
 (2) _NeoSetColor                                          5     3      2     330
                                              0 BANK0      5     3      2
 ---------------------------------------------------------------------------------
 (2) _NeoRotate                                            4     4      0     165
                                              0 BANK0      4     4      0
 ---------------------------------------------------------------------------------
 (2) _NeoInit                                              1     1      0     465
                                              0 BANK0      1     1      0
 ---------------------------------------------------------------------------------
 (1) _rxTrame                                             10     8      2     392
                                              0 BANK0     10     8      2
 ---------------------------------------------------------------------------------
 (1) _initialisation                                       0     0      0       0
 ---------------------------------------------------------------------------------
 (1) _NeoDraw                                              5     5      0     225
                                              1 BANK0      5     5      0
                             _NeoBit
 ---------------------------------------------------------------------------------
 (2) _NeoBit                                               1     1      0      15
                                              0 BANK0      1     1      0
 ---------------------------------------------------------------------------------
 Estimated maximum stack depth 3
 ---------------------------------------------------------------------------------

 Call Graph Graphs:

 _main (ROOT)
   _NeoDraw
     _NeoBit
   _NeoInit
   _initialisation
   _rxTrame
   _traiteTrame
     _NeoInit
     _NeoRotate
     _NeoSetColor
     _NeoWave
       ___awmod
     ___awdiv

 Address spaces:
Name               Size   Autos  Total    Cost      Usage
BIGRAM             5EE      0       0      16        0.0%
EEDATA             100      0       0       0        0.0%
BITBANK4           100      0       0      13        0.0%
BANK4              100      0       0       6        0.0%
BITBANK3           100      0       0      12        0.0%
BANK3              100      0       0       5        0.0%
BITBANK2           100      0       0      11        0.0%
BANK2              100      0       0       4        0.0%
BITBANK1           100      0       0       9        0.0%
BANK1              100      0       0      10        0.0%
BITBANK5            EF      0       0      14        0.0%
BANK5               EF      0       0      15        0.0%
BITBANK0            A0      0       0       8        0.0%
BANK0               A0     15      3F       3       39.4%
BITCOMRAM           5F      0       0       0        0.0%
COMRAM              5F      0       0       1        0.0%
BITSFR_6             0      0       0     200        0.0%
SFR_6                0      0       0     200        0.0%
BITSFR_5             0      0       0     200        0.0%
SFR_5                0      0       0     200        0.0%
BITSFR_4             0      0       0     200        0.0%
SFR_4                0      0       0     200        0.0%
BITSFR_3             0      0       0     200        0.0%
SFR_3                0      0       0     200        0.0%
BITSFR_2             0      0       0     200        0.0%
SFR_2                0      0       0     200        0.0%
BITSFR_1             0      0       0     200        0.0%
SFR_1                0      0       0     200        0.0%
BITSFR               0      0       0     200        0.0%
SFR                  0      0       0     200        0.0%
STACK                0      0       0       2        0.0%
NULL                 0      0       0       0        0.0%
ABS                  0      0      3F       7        0.0%
DATA                 0      0      3F      17        0.0%
CODE                 0      0       0       0        0.0%


Microchip Technology PIC18 Macro Assembler V2.10 build 88905656 
Symbol Table                                                                                   Wed Apr 29 10:36:59 2020

                                             _traiteTrame 3740  
                                           rxTrame@chkSum 0092  
                                           rxTrame@buffer 008A  
                                                      l50 3D78  
                                                      l42 3D72  
                                                      l62 3394  
                                                      l49 3D62  
                                                      l83 34BA  
                                                      l59 386A  
                                                      l93 3FE0  
                                                      l99 3FFA  
                                                      u70 3D98  
                                                      u71 3D92  
                                                      u80 3DB4  
                                                      u81 3DAE  
                                                      u90 3E02  
                                                      u91 3DFC  
                                            ___awdiv@sign 008F  
                                           rxTrame@retour 008E  
                                            __CFG_CP0$OFF 000000  
                                            __CFG_CP1$OFF 000000  
                                            __CFG_CP2$OFF 000000  
                                            __CFG_CP3$OFF 000000  
                                             __CFG_OSC$HS 000000  
                                                     l102 33CA  
                                                     l104 33D6  
                                                     l115 3A06  
                                                     l108 3A02  
                                                     l140 3B9E  
                                                     l125 355E  
                                                     l126 356C  
                                                     l374 373C  
                                                     l387 364A  
                                                     l910 34CE  
                                                     l920 354A  
                                                     l912 34D4  
                                                     l860 3DB6  
                                                     l852 3D7E  
                                                     l916 34EE  
                                                     l908 34C2  
                                                     l870 3E68  
                                                     l862 3DEC  
                                                     l854 3D84  
                                                     l918 3546  
                                                     l880 3F18  
                                                     l872 3E7E  
                                                     l864 3E04  
                                                     l890 3FAA  
                                                     l882 3F30  
                                                     l874 3EB4  
                                                     l866 3E1A  
                                                     l858 3D9E  
                                                     l956 339E  
                                                     l884 3F46  
                                                     l876 3ECC  
                                                     l868 3E50  
                                                     l892 3FE0  
                                                     l958 33B4  
                                                     l894 3FE6  
                                                     l886 3F7C  
                                                     l878 3EE2  
                                                     l888 3F94  
                                            __CFG_CPB$OFF 000000  
                                                     u100 3E18  
                                                     u101 3E12  
                                                     u110 3E66  
                                                     u111 3E60  
                                                     u120 3E7C  
                                                     u121 3E76  
                                                     u130 3ECA  
                                                     u131 3EC4  
                                                     u140 3EE0  
                                                     u220 34E8  
                                                     u141 3EDA  
                                                     u221 34E2  
                                                     u150 3F2E  
                                                     u230 355E  
                                                     u151 3F28  
                                                     u231 3558  
                                                     u400 391E  
                                                     u160 3F44  
                                                     u401 3918  
                                                     u161 3F3E  
                                                     u170 3F92  
                                                     u171 3F8C  
                                                     u420 3976  
                                                     u180 3FA8  
                                                     u421 3970  
                                                     u181 3FA2  
                                                     u430 3990  
                                                     u414 394E  
                                                     u190 3FFA  
                                                     u431 398A  
                                                     u415 3948  
                                                     u191 3FF4  
                                                     u360 388C  
                                                     u600 35C8  
                                                     u361 3886  
                                                     u601 35C2  
                                                     u290 33B2  
                                                     u450 39E8  
                                                     u370 38AC  
                                                     u610 35EE  
                                            __CFG_CPD$OFF 000000  
                                                     u291 33AC  
                                                     u451 39E2  
                                                     u371 38A6  
                                                     u611 35E8  
                                                     u460 3A02  
                                                     u444 39C0  
                                                     u620 360A  
                                                     u700 3B72  
                                                     u461 39FC  
                                                     u445 39BA  
                                                     u621 3604  
                                                     u701 3B6C  
                                                     u390 3904  
                                                     u630 3636  
                                                     u710 3666  
                                                     u391 38FE  
                                                     u631 3630  
                                                     u711 3660  
                                                     u384 38DC  
                                                     u800 3C32  
                                                     u640 345A  
                                                     u720 3686  
                                                     u385 38D6  
                                                     u801 3C2C  
                                                     u641 3454  
                                                     u721 3680  
                                                     u810 3C54  
                                                     u650 34BA  
                                                     u730 36B2  
                                                     u811 3C4E  
                                                     u651 34B4  
                                                     u731 36AC  
                                                     u820 3C96  
                                                     u580 3588  
                                                     u660 3A26  
                                                     u740 36D8  
                                                     u821 3C90  
                                                     u581 3582  
                                                     u661 3A20  
                                                     u741 36D2  
                                                     u830 3CC2  
                                                     u590 35A8  
                                                     u670 3A9C  
                                                     u750 36FA  
                                                     u831 3CBC  
                                                     u591 35A2  
                                                     u671 3A96  
                                                     u751 36F4  
                                                     u840 3D18  
                                                     u680 3AE8  
                                                     u760 3728  
                                                     u841 3D12  
                                                     u681 3AE2  
                                                     u761 3722  
                                                     u850 3D5A  
                                                     u770 3BC8  
                                                     u690 3B20  
                                                     u851 3D54  
                                                     u771 3BC2  
                                                     u691 3B1A  
                                                     u780 3BE2  
                                                     u860 340E  
                                                     u781 3BDC  
                                                     u861 3408  
                                                     u790 3BFA  
                                                     u791 3BF4  
                                            __CFG_BOR$OFF 000000  
                                            __CFG_BORV$25 000000  
                                            ___awmod@sign 008F  
                                                     wreg 000FE8  
                                            __CFG_LVP$OFF 000000  
                                            __CFG_WDT$OFF 000000  
                                                    l1010 3392  
                                                    l1020 389A  
                                                    l1012 3872  
                                                    l1004 3386  
                                                    l1030 3904  
                                                    l1014 3878  
                                                    l1006 338E  
                                                    l1040 3964  
                                                    l1032 390C  
                                                    l1024 38B2  
                                                    l1008 3390  
                                                    l1050 39D2  
                                                    l1042 3976  
                                                    l1026 38EE  
                                                    l1018 3892  
                                                    l1210 3494  
                                                    l1202 3430  
                                                    l1052 39D6  
                                                    l1044 397E  
                                                    l1036 3924  
                                                    l1028 38F2  
                                                    l1300 3BCE  
                                                    l1212 349A  
                                                    l1204 343A  
                                                    l1220 3A2C  
                                                    l1054 39E8  
                                                    l1038 3960  
                                                    l1310 3C34  
                                                    l1302 3BE4  
                                                    l1230 3AEA  
                                                    l1222 3A84  
                                                    l1214 3A0C  
                                                    l1056 39EE  
                                                    l1048 3996  
                                                    l1320 3CA2  
                                                    l1312 3C56  
                                                    l1304 3BFC  
                                                    l1208 3460  
                                                    l1240 3B46  
                                                    l1232 3AEE  
                                                    l1224 3A88  
                                                    l1216 3A12  
                                                    l1330 3D18  
                                                    l1314 3C6E  
                                                    l1306 3C08  
                                                    l1170 358A  
                                                    l1242 3B50  
                                                    l1234 3AFE  
                                                    l1226 3A9C  
                                                    l1250 3656  
                                                    l1332 3D22  
                                                    l1324 3CC8  
                                                    l1316 3C74  
                                                    l1308 3C12  
                                                    l1180 35CA  
                                                    l1172 3592  
                                                    l1244 3B74  
                                                    l1236 3B22  
                                                    l1228 3AC8  
                                                    l1260 3690  
                                                    l1252 3668  
                                                    l1340 3742  
                                                    l1334 3D5C  
                                                    l1326 3CF2  
                                                    l1318 3C98  
                                                    l1190 3614  
                                                    l1182 35D2  
                                                    l1174 3596  
                                                    l1166 3572  
                                                    l1246 3B80  
                                                    l1238 3B28  
                                                    l1270 36C6  
                                                    l1262 3694  
                                                    l1254 3670  
                                                    l1350 3812  
                                                    l1342 3746  
                                                    l1328 3CF8  
                                                    l1336 3D6E  
                                                    l1192 361C  
                                                    l1184 35DC  
                                                    l1176 35AA  
                                                    l1168 3578  
                                                    l1280 3706  
                                                    l1272 36DA  
                                                    l1264 369E  
                                                    l1256 3674  
                                                    l1248 3650  
                                                    l1344 37EA  
                                                    l1360 33DE  
                                                    l1186 35F0  
                                                    l1194 3622  
                                                    l1178 35B2  
                                                    l1282 370E  
                                                    l1274 36E2  
                                                    l1266 36B4  
                                                    l1258 3688  
                                                    l1346 37FE  
                                                    l1354 381C  
                                                    l1370 341E  
                                                    l1362 33E4  
                                                    l1292 3BA6  
                                                    l1196 3638  
                                                    l1188 360C  
                                                    l1276 36FC  
                                                    l1268 36BC  
                                                    l1284 3714  
                                                    l1348 3808  
                                                    l1364 33E8  
                                                    l1294 3BB6  
                                                    l1198 3640  
                                                    l1286 372A  
                                                    l1278 3704  
                                                    l1366 33EC  
                                                    l1296 3BB8  
                                                    l1288 3732  
                                                    l1392 3842  
                                                    l1368 3410  
                                                    l1298 3BCA  
                                        ??_initialisation 008A  
                                           ??_NeoSetColor 008C  
                                              NeoRotate@B 008C  
                                              NeoRotate@G 008B  
                                              NeoRotate@R 008A  
                                                    _main 33DE  
                                                    fsr2h 000FDA  
                                                    indf1 000FE7  
                                                    indf2 000FDF  
                                                    fsr1l 000FE1  
                                                    fsr2l 000FD9  
                                                    prodh 000FF4  
                                                    prodl 000FF3  
                                                    start 0002  
                                            ___param_bank 000000  
                                         __end_of_NeoDraw 3A0A  
                                         __end_of_NeoInit 4000  
                                         __end_of_NeoWave 3BA4  
                                           __CFG_OSCS$OFF 000000  
                                                   ?_main 008A  
                                         __end_of___awdiv 3740  
                                         __end_of___awmod 364E  
                                         ___awdiv@divisor 008C  
                                         ___awdiv@counter 008E  
                                                   _RCREG 000FAE  
                                                   _SPBRG 000FAF  
                                                   _TRISD 000F95  
                                           __CFG_PWRT$OFF 000000  
                                           __CFG_WRT0$OFF 000000  
                                           __CFG_WRT1$OFF 000000  
                                           __CFG_WRT2$OFF 000000  
                                           __CFG_WRT3$OFF 000000  
                                          __CFG_EBTR0$OFF 000000  
                                          __CFG_EBTR1$OFF 000000  
                                          __CFG_EBTR2$OFF 000000  
                                          __CFG_EBTR3$OFF 000000  
                                           __CFG_STVR$OFF 000000  
                                           __CFG_WRTB$OFF 000000  
                                           __CFG_WRTC$OFF 000000  
                                           __CFG_WRTD$OFF 000000  
                                          __CFG_EBTRB$OFF 000000  
                                         __end_of_rxTrame 3D7C  
                                                   status 000FD8  
                                         __initialization 3372  
                                     __end_of_NeoSetColor 34C0  
                                            __end_of_main 342A  
                                            NeoSetColor@B 008B  
                                            NeoSetColor@G 008A  
                                            NeoSetColor@R 008C  
                                            NeoSetColor@i 008D  
                                                  ??_main 0099  
                                           __activetblptr 000003  
                                        ___awdiv@dividend 008A  
                                          __CFG_WDTPS$128 000000  
                                      __size_of_NeoRotate 00B0  
                                               ??_NeoDraw 008B  
                                               ??_NeoInit 008A  
                                               ??_NeoWave 0090  
                                       rxTrame@indexTrame 0088  
                                                  _NeoBit 3398  
                                                  _NeoRed 0060  
                                         traiteTrame@NeoB 0098  
                                         traiteTrame@NeoG 0097  
                                         traiteTrame@NeoR 0096  
                                               ??___awdiv 008E  
                                               ??___awmod 008E  
                                                  clear_0 3378  
                                        ___awdiv@quotient 0090  
                                         ___awmod@divisor 008C  
                                         ___awmod@counter 008E  
                                               ??_rxTrame 008C  
                                              __accesstop 0060  
                                 __end_of__initialization 337E  
                                             _NeoSetColor 342A  
                                           ___rparam_used 000000  
                                            ?_traiteTrame 0092  
                                       __end_of_NeoRotate 3570  
                                              __pbssBANK0 0060  
                                         NeoWave@NeoPixel 0090  
                                                 ?_NeoBit 008A  
                                         NeoDraw@BitCount 008F  
                                                 _NeoBlue 006C  
                                                 _NeoDraw 3870  
                                                 _NeoInit 3D7C  
                                                 _NeoWave 3A0A  
                                                 __Hparam 0000  
                                         __size_of_NeoBit 0044  
                                                 __Lparam 0000  
                                       NeoRotate@NeoPixel 008D  
                                         NeoDraw@NeoPixel 008E  
                                                 ___awdiv 364E  
                                                 ___awmod 3570  
                                         NeoWave@position 0086  
                                                 __pcinit 3372  
                                                 __ramtop 0600  
                                                 __ptext0 33DE  
                                                 __ptext1 3740  
                                                 __ptext2 364E  
                                                 __ptext3 3A0A  
                                                 __ptext4 3570  
                                                 __ptext5 342A  
                                                 __ptext6 34C0  
                                                 __ptext7 3D7C  
                                                 __ptext8 3BA4  
                                                 __ptext9 3384  
                                        ___awmod@dividend 008A  
                                                 _rxTrame 3BA4  
                                    end_of_initialization 337E  
                                               _RCSTAbits 000FAB  
                                                 postinc0 000FEE  
                                 __size_of_initialisation 0014  
                                    __size_of_traiteTrame 0130  
                                               _PORTDbits 000F83  
                                               NeoBit@Bit 008A  
                                            ?_NeoSetColor 008A  
                                               _TXSTAbits 000FAC  
                                          __end_of_NeoBit 33DC  
                                     start_initialization 3372  
                                               _NeoRotate 34C0  
                                                ??_NeoBit 008A  
                                           __pcstackBANK0 008A  
                                              ?_NeoRotate 008A  
                                                ?_NeoDraw 008A  
                                                ?_NeoInit 008A  
                                                ?_NeoWave 008A  
                                          _initialisation 3384  
                                                ?___awdiv 008A  
                                                ?___awmod 008A  
                                          NeoWave@couleur 0084  
                                                ?_rxTrame 008A  
                                         NeoInit@NeoPixel 008A  
                                    __size_of_NeoSetColor 0096  
                                  __end_of_initialisation 3398  
                                                _PIR1bits 000F9E  
                                               main@trame 0099  
                                             ??_NeoRotate 008A  
                                                _NeoGreen 0078  
                                                __Hparam0 0000  
                                        __size_of_NeoDraw 019A  
                                        __size_of_NeoInit 0284  
                                                __Lparam0 0000  
                                        __size_of_NeoWave 019A  
                                         ?_initialisation 008A  
                                           ??_traiteTrame 0094  
                                        __size_of___awdiv 00F2  
                                        __size_of___awmod 00DE  
                                       traiteTrame@buffer 0092  
                                                __ptext10 3870  
                                                __ptext11 3398  
                                        __size_of_rxTrame 01D8  
                                           __size_of_main 004C  
                                     __end_of_traiteTrame 3870  
                                                rxTrame@c 0091  
                                                rxTrame@i 008F  
