

Microchip MPLAB XC8 Assembler V2.10 build 88905656 
                                                                                               Fri Feb 21 16:35:35 2020

Microchip MPLAB XC8 C Compiler v2.10 (Free license) build 20190730164152 Og1 
     1                           	processor	18F458
     2                           	fnconf	rparam,??,?,0
     3                           	opt	pw 120
     4                           	opt	flic
     5                           	psect	cinit,global,reloc=2,class=CODE,delta=1
     6                           	psect	bssCOMRAM,global,class=COMRAM,space=1,delta=1,noexec
     7                           	psect	cstackCOMRAM,global,class=COMRAM,space=1,delta=1,noexec
     8                           	psect	text0,global,reloc=2,class=CODE,delta=1
     9                           	psect	text1,global,reloc=2,class=CODE,delta=1
    10                           	psect	text2,global,reloc=2,class=CODE,delta=1
    11                           	psect	text3,global,reloc=2,class=CODE,delta=1
    12                           	psect	text4,global,reloc=2,class=CODE,delta=1
    13                           	psect	text5,global,reloc=2,class=CODE,delta=1
    14                           	psect	text6,global,reloc=2,class=CODE,delta=1
    15                           	psect	intsave_regs,global,class=BIGRAM,space=1,delta=1,noexec
    16                           	psect	rparam,global,class=COMRAM,space=1,delta=1,noexec
    17  0000                     
    18                           ; Version 2.10
    19                           ; Generated 31/07/2019 GMT
    20                           ; 
    21                           ; Copyright © 2019, Microchip Technology Inc. and its subsidiaries ("Microchip")
    22                           ; All rights reserved.
    23                           ; 
    24                           ; This software is developed by Microchip Technology Inc. and its subsidiaries ("Microch
      +                          ip").
    25                           ; 
    26                           ; Redistribution and use in source and binary forms, with or without modification, are
    27                           ; permitted provided that the following conditions are met:
    28                           ; 
    29                           ;     1. Redistributions of source code must retain the above copyright notice, this lis
      +                          t of
    30                           ;        conditions and the following disclaimer.
    31                           ; 
    32                           ;     2. Redistributions in binary form must reproduce the above copyright notice, this 
      +                          list
    33                           ;        of conditions and the following disclaimer in the documentation and/or other
    34                           ;        materials provided with the distribution.
    35                           ; 
    36                           ;     3. Microchip's name may not be used to endorse or promote products derived from th
      +                          is
    37                           ;        software without specific prior written permission.
    38                           ; 
    39                           ; THIS SOFTWARE IS PROVIDED BY MICROCHIP "AS IS" AND ANY EXPRESS OR IMPLIED WARRANTIES,
    40                           ; INCLUDING, BUT NOT LIMITED TO, THE IMPLIED WARRANTIES OF MERCHANTABILITY AND FITNESS F
      +                          OR
    41                           ; PURPOSE ARE DISCLAIMED.  IN NO EVENT SHALL MICROCHIP BE LIABLE FOR ANY DIRECT, INDIREC
      +                          T,
    42                           ; INCIDENTAL, SPECIAL, EXEMPLARY, OR CONSEQUENTIAL DAMAGES (INCLUDING BUT NOT LIMITED TO
    43                           ; PROCUREMENT OF SUBSTITUTE GOODS OR SERVICES; LOSS OF USE, DATA OR PROFITS; OR BUSINESS
    44                           ; INTERRUPTION) HOWSOEVER CAUSED AND ON ANY THEORY OF LIABILITY, WHETHER IN CONTRACT, ST
      +                          RICT
    45                           ; LIABILITY, OR TORT (INCLUDING NEGLIGENCE OR OTHERWISE) ARISING IN ANY WAY OUT OF THE U
      +                          SE OF
    46                           ; THIS SOFTWARE, EVEN IF ADVISED OF THE POSSIBILITY OF SUCH DAMAGE.
    47                           ; 
    48                           ; 
    49                           ; Code-generator required, PIC18F458 Definitions
    50                           ; 
    51                           ; SFR Addresses
    52  0000                     _PORTDbits	set	3971
    53  0000                     _TRISD	set	3989
    54  0000                     _RCREG	set	4014
    55  0000                     _PIR1bits	set	3998
    56  0000                     _RCSTAbits	set	4011
    57  0000                     _TXSTAbits	set	4012
    58  0000                     _SPBRG	set	4015
    59                           
    60                           ; #config settings
    61  0000                     
    62                           	psect	cinit
    63  003B72                     __pcinit:
    64                           	opt callstack 0
    65  003B72                     start_initialization:
    66                           	opt callstack 0
    67  003B72                     __initialization:
    68                           	opt callstack 0
    69                           
    70                           ; Clear objects allocated to COMRAM (36 bytes)
    71  003B72  EE00  F001         	lfsr	0,__pbssCOMRAM
    72  003B76  0E24               	movlw	36
    73  003B78                     clear_0:
    74  003B78  6AEE               	clrf	postinc0,c
    75  003B7A  06E8               	decf	wreg,f,c
    76  003B7C  E1FD               	bnz	clear_0
    77  003B7E                     end_of_initialization:
    78                           	opt callstack 0
    79  003B7E                     __end_of__initialization:
    80                           	opt callstack 0
    81  003B7E  0100               	movlb	0
    82  003B80  EFDE  F01D         	goto	_main	;jump to C main() function
    83                           
    84                           	psect	bssCOMRAM
    85  000001                     __pbssCOMRAM:
    86                           	opt callstack 0
    87  000001                     _NeoRed:
    88                           	opt callstack 0
    89  000001                     	ds	12
    90  00000D                     _NeoBlue:
    91                           	opt callstack 0
    92  00000D                     	ds	12
    93  000019                     _NeoGreen:
    94                           	opt callstack 0
    95  000019                     	ds	12
    96                           
    97                           	psect	cstackCOMRAM
    98  000025                     __pcstackCOMRAM:
    99                           	opt callstack 0
   100  000025                     rxComm@carRecu:
   101                           	opt callstack 0
   102  000025                     NeoInit@NeoPixel:
   103                           	opt callstack 0
   104  000025                     NeoBit@Bit:
   105                           	opt callstack 0
   106  000025                     NeoRotate@R:
   107                           	opt callstack 0
   108                           
   109                           ; 1 bytes @ 0x0
   110  000025                     	ds	1
   111  000026                     ??_NeoDraw:
   112  000026                     NeoRotate@G:
   113                           	opt callstack 0
   114                           
   115                           ; 1 bytes @ 0x1
   116  000026                     	ds	1
   117  000027                     NeoRotate@B:
   118                           	opt callstack 0
   119                           
   120                           ; 1 bytes @ 0x2
   121  000027                     	ds	1
   122  000028                     NeoRotate@NeoPixel:
   123                           	opt callstack 0
   124                           
   125                           ; 1 bytes @ 0x3
   126  000028                     	ds	1
   127  000029                     NeoDraw@NeoPixel:
   128                           	opt callstack 0
   129                           
   130                           ; 1 bytes @ 0x4
   131  000029                     	ds	1
   132  00002A                     NeoDraw@BitCount:
   133                           	opt callstack 0
   134                           
   135                           ; 1 bytes @ 0x5
   136  00002A                     	ds	1
   137  00002B                     
   138                           ; 1 bytes @ 0x6
   139 ;;
   140 ;;Main: autosize = 0, tempsize = 0, incstack = 0, save=0
   141 ;;
   142 ;; *************** function _main *****************
   143 ;; Defined at:
   144 ;;		line 24 in file "main.c"
   145 ;; Parameters:    Size  Location     Type
   146 ;;		None
   147 ;; Auto vars:     Size  Location     Type
   148 ;;  carRx           1    0        unsigned char 
   149 ;; Return value:  Size  Location     Type
   150 ;;                  1    wreg      void 
   151 ;; Registers used:
   152 ;;		wreg, fsr1l, fsr1h, fsr2l, fsr2h, status,2, status,0, cstack
   153 ;; Tracked objects:
   154 ;;		On entry : 0/0
   155 ;;		On exit  : 0/0
   156 ;;		Unchanged: 0/0
   157 ;; Data sizes:     COMRAM   BANK0   BANK2   BANK3   BANK4   BANK1   BANK5
   158 ;;      Params:         0       0       0       0       0       0       0
   159 ;;      Locals:         1       0       0       0       0       0       0
   160 ;;      Temps:          0       0       0       0       0       0       0
   161 ;;      Totals:         1       0       0       0       0       0       0
   162 ;;Total ram usage:        1 bytes
   163 ;; Hardware stack levels required when called:    2
   164 ;; This function calls:
   165 ;;		_NeoDraw
   166 ;;		_NeoInit
   167 ;;		_NeoRotate
   168 ;;		_initialisation
   169 ;;		_rxComm
   170 ;; This function is called by:
   171 ;;		Startup code after reset
   172 ;; This function uses a non-reentrant model
   173 ;;
   174                           
   175                           	psect	text0
   176  003BBC                     __ptext0:
   177                           	opt callstack 0
   178  003BBC                     _main:
   179                           	opt callstack 29
   180  003BBC  FFFF               	dw	65535	; assembler added errata NOP
   181                           
   182                           ;main.c: 28:     initialisation();
   183  003BBE  ECC2  F01D         	call	_initialisation	;wreg free
   184  003BC2                     
   185                           ;main.c: 30:     NeoInit();
   186  003BC2  ECDF  F01E         	call	_NeoInit	;wreg free
   187  003BC6                     
   188                           ;main.c: 31:     NeoDraw ();
   189  003BC6  EC58  F01E         	call	_NeoDraw	;wreg free
   190  003BCA                     l900:
   191  003BCA  FFFF               	dw	65535	; assembler added errata NOP
   192                           
   193                           ;main.c: 34:     {;main.c: 35:       NeoDraw ();
   194  003BCC  EC58  F01E         	call	_NeoDraw	;wreg free
   195  003BD0                     
   196                           ;main.c: 36:       NeoRotate ();
   197  003BD0  EC11  F01E         	call	_NeoRotate	;wreg free
   198  003BD4  ECCC  F01D         	call	_rxComm	;wreg free
   199  003BD8  EFE5  F01D         	goto	l900
   200  003BDC  EF01  F000         	goto	start
   201  003BE0                     __end_of_main:
   202                           	opt callstack 0
   203                           
   204 ;; *************** function _rxComm *****************
   205 ;; Defined at:
   206 ;;		line 64 in file "main.c"
   207 ;; Parameters:    Size  Location     Type
   208 ;;		None
   209 ;; Auto vars:     Size  Location     Type
   210 ;;  carRecu         1    0[COMRAM] unsigned char 
   211 ;; Return value:  Size  Location     Type
   212 ;;                  1    wreg      unsigned char 
   213 ;; Registers used:
   214 ;;		wreg, status,2
   215 ;; Tracked objects:
   216 ;;		On entry : 0/0
   217 ;;		On exit  : 0/0
   218 ;;		Unchanged: 0/0
   219 ;; Data sizes:     COMRAM   BANK0   BANK2   BANK3   BANK4   BANK1   BANK5
   220 ;;      Params:         0       0       0       0       0       0       0
   221 ;;      Locals:         1       0       0       0       0       0       0
   222 ;;      Temps:          0       0       0       0       0       0       0
   223 ;;      Totals:         1       0       0       0       0       0       0
   224 ;;Total ram usage:        1 bytes
   225 ;; Hardware stack levels used:    1
   226 ;; This function calls:
   227 ;;		Nothing
   228 ;; This function is called by:
   229 ;;		_main
   230 ;; This function uses a non-reentrant model
   231 ;;
   232                           
   233                           	psect	text1
   234  003B98                     __ptext1:
   235                           	opt callstack 0
   236  003B98                     _rxComm:
   237                           	opt callstack 0
   238  003B98  FFFF               	dw	65535	; assembler added errata NOP
   239  003B9A                     
   240                           ;main.c: 72:     RCSTAbits.CREN = 1;
   241  003B9A  88AB               	bsf	171,4,c	;volatile
   242  003B9C                     l36:
   243  003B9C  FFFF               	dw	65535	; assembler added errata NOP
   244  003B9E  AA9E               	btfss	158,5,c	;volatile
   245  003BA0  EFD4  F01D         	goto	u221
   246  003BA4  EFD7  F01D         	goto	u220
   247  003BA8                     u221:
   248  003BA8  FFFF               	dw	65535	; assembler added errata NOP
   249  003BAA  EFCE  F01D         	goto	l36
   250  003BAE                     u220:
   251  003BAE  FFFF               	dw	65535	; assembler added errata NOP
   252  003BB0                     
   253                           ;main.c: 86:     carRecu = RCREG;
   254  003BB0  CFAE F025          	movff	4014,rxComm@carRecu	;volatile
   255                           
   256                           ;main.c: 92:     RCSTAbits.CREN = 0;
   257  003BB4  98AB               	bcf	171,4,c	;volatile
   258  003BB6                     
   259                           ;main.c: 94:     return carRecu;
   260  003BB6  5025               	movf	rxComm@carRecu^0,w,c
   261  003BB8  0012               	return		;funcret
   262  003BBA  FFFF               	dw	65535	; errata NOP
   263  003BBC                     __end_of_rxComm:
   264                           	opt callstack 0
   265                           
   266 ;; *************** function _initialisation *****************
   267 ;; Defined at:
   268 ;;		line 44 in file "main.c"
   269 ;; Parameters:    Size  Location     Type
   270 ;;		None
   271 ;; Auto vars:     Size  Location     Type
   272 ;;		None
   273 ;; Return value:  Size  Location     Type
   274 ;;                  1    wreg      void 
   275 ;; Registers used:
   276 ;;		wreg, status,2
   277 ;; Tracked objects:
   278 ;;		On entry : 0/0
   279 ;;		On exit  : 0/0
   280 ;;		Unchanged: 0/0
   281 ;; Data sizes:     COMRAM   BANK0   BANK2   BANK3   BANK4   BANK1   BANK5
   282 ;;      Params:         0       0       0       0       0       0       0
   283 ;;      Locals:         0       0       0       0       0       0       0
   284 ;;      Temps:          0       0       0       0       0       0       0
   285 ;;      Totals:         0       0       0       0       0       0       0
   286 ;;Total ram usage:        0 bytes
   287 ;; Hardware stack levels used:    1
   288 ;; This function calls:
   289 ;;		Nothing
   290 ;; This function is called by:
   291 ;;		_main
   292 ;; This function uses a non-reentrant model
   293 ;;
   294                           
   295                           	psect	text2
   296  003B84                     __ptext2:
   297                           	opt callstack 0
   298  003B84                     _initialisation:
   299                           	opt callstack 0
   300  003B84  FFFF               	dw	65535	; assembler added errata NOP
   301  003B86                     
   302                           ;main.c: 46:     TRISD = 0;
   303  003B86  0E00               	movlw	0
   304  003B88  6E95               	movwf	149,c	;volatile
   305                           
   306                           ;main.c: 51:     SPBRG = 64;
   307  003B8A  0E40               	movlw	64
   308  003B8C  6EAF               	movwf	175,c	;volatile
   309  003B8E                     
   310                           ;main.c: 55:     TXSTAbits.BRGH = 0;
   311  003B8E  94AC               	bcf	172,2,c	;volatile
   312  003B90                     
   313                           ;main.c: 59:     RCSTAbits.SPEN = 1;
   314  003B90  8EAB               	bsf	171,7,c	;volatile
   315  003B92                     
   316                           ;main.c: 60:     TXSTAbits.SYNC = 0;
   317  003B92  98AC               	bcf	172,4,c	;volatile
   318  003B94  0012               	return		;funcret
   319  003B96  FFFF               	dw	65535	; errata NOP
   320  003B98                     __end_of_initialisation:
   321                           	opt callstack 0
   322                           
   323 ;; *************** function _NeoRotate *****************
   324 ;; Defined at:
   325 ;;		line 20 in file "EffetsNeoPxl.c"
   326 ;; Parameters:    Size  Location     Type
   327 ;;		None
   328 ;; Auto vars:     Size  Location     Type
   329 ;;  NeoPixel        1    3[COMRAM] unsigned char 
   330 ;;  B               1    2[COMRAM] unsigned char 
   331 ;;  G               1    1[COMRAM] unsigned char 
   332 ;;  R               1    0[COMRAM] unsigned char 
   333 ;; Return value:  Size  Location     Type
   334 ;;                  1    wreg      void 
   335 ;; Registers used:
   336 ;;		wreg, fsr1l, fsr1h, fsr2l, fsr2h, status,2, status,0
   337 ;; Tracked objects:
   338 ;;		On entry : 0/0
   339 ;;		On exit  : 0/0
   340 ;;		Unchanged: 0/0
   341 ;; Data sizes:     COMRAM   BANK0   BANK2   BANK3   BANK4   BANK1   BANK5
   342 ;;      Params:         0       0       0       0       0       0       0
   343 ;;      Locals:         4       0       0       0       0       0       0
   344 ;;      Temps:          0       0       0       0       0       0       0
   345 ;;      Totals:         4       0       0       0       0       0       0
   346 ;;Total ram usage:        4 bytes
   347 ;; Hardware stack levels used:    1
   348 ;; This function calls:
   349 ;;		Nothing
   350 ;; This function is called by:
   351 ;;		_main
   352 ;; This function uses a non-reentrant model
   353 ;;
   354                           
   355                           	psect	text3
   356  003C22                     __ptext3:
   357                           	opt callstack 0
   358  003C22                     _NeoRotate:
   359                           	opt callstack 0
   360  003C22  FFFF               	dw	65535	; assembler added errata NOP
   361  003C24                     
   362                           ;EffetsNeoPxl.c: 22:    uint8_t NeoPixel;;EffetsNeoPxl.c: 23:    uint8_t R,G,B;;EffetsNe
      +                          oPxl.c: 24:    G = NeoGreen[0];
   363  003C24  C019  F026         	movff	_NeoGreen,NeoRotate@G
   364                           
   365                           ;EffetsNeoPxl.c: 25:    B = NeoBlue[0];
   366  003C28  C00D  F027         	movff	_NeoBlue,NeoRotate@B
   367                           
   368                           ;EffetsNeoPxl.c: 26:    R = NeoRed[0];
   369  003C2C  C001  F025         	movff	_NeoRed,NeoRotate@R
   370  003C30                     
   371                           ;EffetsNeoPxl.c: 29:    for (NeoPixel = 0; NeoPixel < 12 - 1; NeoPixel++)
   372  003C30  0E00               	movlw	0
   373  003C32  6E28               	movwf	NeoRotate@NeoPixel^0,c
   374  003C34                     l878:
   375  003C34  FFFF               	dw	65535	; assembler added errata NOP
   376                           
   377                           ;EffetsNeoPxl.c: 30:    {;EffetsNeoPxl.c: 31:       NeoGreen[NeoPixel] = NeoGreen[NeoPix
      +                          el + 1];
   378  003C36  0E1A               	movlw	low (_NeoGreen+1)
   379  003C38  2428               	addwf	NeoRotate@NeoPixel^0,w,c
   380  003C3A  6ED9               	movwf	fsr2l,c
   381  003C3C  6ADA               	clrf	fsr2h,c
   382  003C3E  0E00               	movlw	high (_NeoGreen+1)
   383  003C40  22DA               	addwfc	fsr2h,f,c
   384  003C42  0E19               	movlw	low _NeoGreen
   385  003C44  2428               	addwf	NeoRotate@NeoPixel^0,w,c
   386  003C46  6EE1               	movwf	fsr1l,c
   387  003C48  6AE2               	clrf	fsr1h,c
   388  003C4A  0E00               	movlw	high _NeoGreen
   389  003C4C  22E2               	addwfc	fsr1h,f,c
   390  003C4E  CFDF FFE7          	movff	indf2,indf1
   391                           
   392                           ;EffetsNeoPxl.c: 32:       NeoBlue[NeoPixel] = NeoBlue[NeoPixel + 1];
   393  003C52  0E0E               	movlw	low (_NeoBlue+1)
   394  003C54  2428               	addwf	NeoRotate@NeoPixel^0,w,c
   395  003C56  6ED9               	movwf	fsr2l,c
   396  003C58  6ADA               	clrf	fsr2h,c
   397  003C5A  0E00               	movlw	high (_NeoBlue+1)
   398  003C5C  22DA               	addwfc	fsr2h,f,c
   399  003C5E  0E0D               	movlw	low _NeoBlue
   400  003C60  2428               	addwf	NeoRotate@NeoPixel^0,w,c
   401  003C62  6EE1               	movwf	fsr1l,c
   402  003C64  6AE2               	clrf	fsr1h,c
   403  003C66  0E00               	movlw	high _NeoBlue
   404  003C68  22E2               	addwfc	fsr1h,f,c
   405  003C6A  CFDF FFE7          	movff	indf2,indf1
   406                           
   407                           ;EffetsNeoPxl.c: 33:       NeoRed[NeoPixel] = NeoRed[NeoPixel + 1];
   408  003C6E  0E02               	movlw	low (_NeoRed+1)
   409  003C70  2428               	addwf	NeoRotate@NeoPixel^0,w,c
   410  003C72  6ED9               	movwf	fsr2l,c
   411  003C74  6ADA               	clrf	fsr2h,c
   412  003C76  0E00               	movlw	high (_NeoRed+1)
   413  003C78  22DA               	addwfc	fsr2h,f,c
   414  003C7A  0E01               	movlw	low _NeoRed
   415  003C7C  2428               	addwf	NeoRotate@NeoPixel^0,w,c
   416  003C7E  6EE1               	movwf	fsr1l,c
   417  003C80  6AE2               	clrf	fsr1h,c
   418  003C82  0E00               	movlw	high _NeoRed
   419  003C84  22E2               	addwfc	fsr1h,f,c
   420  003C86  CFDF FFE7          	movff	indf2,indf1
   421  003C8A                     
   422                           ;EffetsNeoPxl.c: 34:    }
   423  003C8A  2A28               	incf	NeoRotate@NeoPixel^0,f,c
   424  003C8C  0E0A               	movlw	10
   425  003C8E  6428               	cpfsgt	NeoRotate@NeoPixel^0,c
   426  003C90  EF4C  F01E         	goto	u211
   427  003C94  EF4F  F01E         	goto	u210
   428  003C98                     u211:
   429  003C98  FFFF               	dw	65535	; assembler added errata NOP
   430  003C9A  EF1A  F01E         	goto	l878
   431  003C9E                     u210:
   432  003C9E  FFFF               	dw	65535	; assembler added errata NOP
   433  003CA0                     
   434                           ;EffetsNeoPxl.c: 35:    NeoGreen[12 - 1] = G;
   435  003CA0  C026  F024         	movff	NeoRotate@G,_NeoGreen+11
   436                           
   437                           ;EffetsNeoPxl.c: 36:    NeoBlue[12 - 1] = B;
   438  003CA4  C027  F018         	movff	NeoRotate@B,_NeoBlue+11
   439                           
   440                           ;EffetsNeoPxl.c: 37:    NeoRed[12 - 1] = R;
   441  003CA8  C025  F00C         	movff	NeoRotate@R,_NeoRed+11
   442  003CAC  0012               	return		;funcret
   443  003CAE  FFFF               	dw	65535	; errata NOP
   444  003CB0                     __end_of_NeoRotate:
   445                           	opt callstack 0
   446                           
   447 ;; *************** function _NeoInit *****************
   448 ;; Defined at:
   449 ;;		line 46 in file "NeoPxl.c"
   450 ;; Parameters:    Size  Location     Type
   451 ;;		None
   452 ;; Auto vars:     Size  Location     Type
   453 ;;  NeoPixel        1    0[COMRAM] unsigned char 
   454 ;; Return value:  Size  Location     Type
   455 ;;                  1    wreg      void 
   456 ;; Registers used:
   457 ;;		wreg, fsr2l, fsr2h, status,2, status,0
   458 ;; Tracked objects:
   459 ;;		On entry : 0/0
   460 ;;		On exit  : 0/0
   461 ;;		Unchanged: 0/0
   462 ;; Data sizes:     COMRAM   BANK0   BANK2   BANK3   BANK4   BANK1   BANK5
   463 ;;      Params:         0       0       0       0       0       0       0
   464 ;;      Locals:         1       0       0       0       0       0       0
   465 ;;      Temps:          0       0       0       0       0       0       0
   466 ;;      Totals:         1       0       0       0       0       0       0
   467 ;;Total ram usage:        1 bytes
   468 ;; Hardware stack levels used:    1
   469 ;; This function calls:
   470 ;;		Nothing
   471 ;; This function is called by:
   472 ;;		_main
   473 ;; This function uses a non-reentrant model
   474 ;;
   475                           
   476                           	psect	text4
   477  003DBE                     __ptext4:
   478                           	opt callstack 0
   479  003DBE                     _NeoInit:
   480                           	opt callstack 0
   481  003DBE  FFFF               	dw	65535	; assembler added errata NOP
   482  003DC0                     
   483                           ;NeoPxl.c: 48:    uint8_t NeoPixel;;NeoPxl.c: 49:    for (NeoPixel = 0; NeoPixel < 12; N
      +                          eoPixel++)
   484  003DC0  0E00               	movlw	0
   485  003DC2  6E25               	movwf	NeoInit@NeoPixel^0,c
   486  003DC4                     l786:
   487  003DC4  FFFF               	dw	65535	; assembler added errata NOP
   488                           
   489                           ;NeoPxl.c: 50:    {;NeoPxl.c: 51:       if (NeoPixel < 2)
   490  003DC6  0E02               	movlw	2
   491  003DC8  6025               	cpfslt	NeoInit@NeoPixel^0,c
   492  003DCA  EFE9  F01E         	goto	u21
   493  003DCE  EFEC  F01E         	goto	u20
   494  003DD2                     u21:
   495  003DD2  FFFF               	dw	65535	; assembler added errata NOP
   496  003DD4  EF07  F01F         	goto	l790
   497  003DD8                     u20:
   498  003DD8  FFFF               	dw	65535	; assembler added errata NOP
   499  003DDA                     
   500                           ;NeoPxl.c: 52:          { NeoGreen[NeoPixel] = 0; NeoBlue[NeoPixel] = 0; NeoRed[NeoPixel
      +                          ] = 64; }
   501  003DDA  0E19               	movlw	low _NeoGreen
   502  003DDC  2425               	addwf	NeoInit@NeoPixel^0,w,c
   503  003DDE  6ED9               	movwf	fsr2l,c
   504  003DE0  6ADA               	clrf	fsr2h,c
   505  003DE2  0E00               	movlw	high _NeoGreen
   506  003DE4  22DA               	addwfc	fsr2h,f,c
   507  003DE6  0E00               	movlw	0
   508  003DE8  6EDF               	movwf	indf2,c
   509  003DEA  0E0D               	movlw	low _NeoBlue
   510  003DEC  2425               	addwf	NeoInit@NeoPixel^0,w,c
   511  003DEE  6ED9               	movwf	fsr2l,c
   512  003DF0  6ADA               	clrf	fsr2h,c
   513  003DF2  0E00               	movlw	high _NeoBlue
   514  003DF4  22DA               	addwfc	fsr2h,f,c
   515  003DF6  0E00               	movlw	0
   516  003DF8  6EDF               	movwf	indf2,c
   517  003DFA  0E01               	movlw	low _NeoRed
   518  003DFC  2425               	addwf	NeoInit@NeoPixel^0,w,c
   519  003DFE  6ED9               	movwf	fsr2l,c
   520  003E00  6ADA               	clrf	fsr2h,c
   521  003E02  0E00               	movlw	high _NeoRed
   522  003E04  22DA               	addwfc	fsr2h,f,c
   523  003E06  0E40               	movlw	64
   524  003E08  6EDF               	movwf	indf2,c
   525  003E0A  EFF2  F01F         	goto	l820
   526  003E0E                     l790:
   527  003E0E  FFFF               	dw	65535	; assembler added errata NOP
   528  003E10  0E01               	movlw	1
   529  003E12  6425               	cpfsgt	NeoInit@NeoPixel^0,c
   530  003E14  EF0E  F01F         	goto	u31
   531  003E18  EF11  F01F         	goto	u30
   532  003E1C                     u31:
   533  003E1C  FFFF               	dw	65535	; assembler added errata NOP
   534  003E1E  EF36  F01F         	goto	l796
   535  003E22                     u30:
   536  003E22  FFFF               	dw	65535	; assembler added errata NOP
   537  003E24  0E04               	movlw	4
   538  003E26  6025               	cpfslt	NeoInit@NeoPixel^0,c
   539  003E28  EF18  F01F         	goto	u41
   540  003E2C  EF1B  F01F         	goto	u40
   541  003E30                     u41:
   542  003E30  FFFF               	dw	65535	; assembler added errata NOP
   543  003E32  EF36  F01F         	goto	l796
   544  003E36                     u40:
   545  003E36  FFFF               	dw	65535	; assembler added errata NOP
   546  003E38                     
   547                           ;NeoPxl.c: 54:          { NeoGreen[NeoPixel] = 0; NeoBlue[NeoPixel] = 64; NeoRed[NeoPixe
      +                          l] = 0; }
   548  003E38  0E19               	movlw	low _NeoGreen
   549  003E3A  2425               	addwf	NeoInit@NeoPixel^0,w,c
   550  003E3C  6ED9               	movwf	fsr2l,c
   551  003E3E  6ADA               	clrf	fsr2h,c
   552  003E40  0E00               	movlw	high _NeoGreen
   553  003E42  22DA               	addwfc	fsr2h,f,c
   554  003E44  0E00               	movlw	0
   555  003E46  6EDF               	movwf	indf2,c
   556  003E48  0E0D               	movlw	low _NeoBlue
   557  003E4A  2425               	addwf	NeoInit@NeoPixel^0,w,c
   558  003E4C  6ED9               	movwf	fsr2l,c
   559  003E4E  6ADA               	clrf	fsr2h,c
   560  003E50  0E00               	movlw	high _NeoBlue
   561  003E52  22DA               	addwfc	fsr2h,f,c
   562  003E54  0E40               	movlw	64
   563  003E56  6EDF               	movwf	indf2,c
   564  003E58  0E01               	movlw	low _NeoRed
   565  003E5A  2425               	addwf	NeoInit@NeoPixel^0,w,c
   566  003E5C  6ED9               	movwf	fsr2l,c
   567  003E5E  6ADA               	clrf	fsr2h,c
   568  003E60  0E00               	movlw	high _NeoRed
   569  003E62  22DA               	addwfc	fsr2h,f,c
   570  003E64  0E00               	movlw	0
   571  003E66  6EDF               	movwf	indf2,c
   572  003E68  EFF2  F01F         	goto	l820
   573  003E6C                     l796:
   574  003E6C  FFFF               	dw	65535	; assembler added errata NOP
   575  003E6E  0E03               	movlw	3
   576  003E70  6425               	cpfsgt	NeoInit@NeoPixel^0,c
   577  003E72  EF3D  F01F         	goto	u51
   578  003E76  EF40  F01F         	goto	u50
   579  003E7A                     u51:
   580  003E7A  FFFF               	dw	65535	; assembler added errata NOP
   581  003E7C  EF65  F01F         	goto	l802
   582  003E80                     u50:
   583  003E80  FFFF               	dw	65535	; assembler added errata NOP
   584  003E82  0E06               	movlw	6
   585  003E84  6025               	cpfslt	NeoInit@NeoPixel^0,c
   586  003E86  EF47  F01F         	goto	u61
   587  003E8A  EF4A  F01F         	goto	u60
   588  003E8E                     u61:
   589  003E8E  FFFF               	dw	65535	; assembler added errata NOP
   590  003E90  EF65  F01F         	goto	l802
   591  003E94                     u60:
   592  003E94  FFFF               	dw	65535	; assembler added errata NOP
   593  003E96                     
   594                           ;NeoPxl.c: 56:          { NeoGreen[NeoPixel] = 0; NeoBlue[NeoPixel] = 64; NeoRed[NeoPixe
      +                          l] = 64; }
   595  003E96  0E19               	movlw	low _NeoGreen
   596  003E98  2425               	addwf	NeoInit@NeoPixel^0,w,c
   597  003E9A  6ED9               	movwf	fsr2l,c
   598  003E9C  6ADA               	clrf	fsr2h,c
   599  003E9E  0E00               	movlw	high _NeoGreen
   600  003EA0  22DA               	addwfc	fsr2h,f,c
   601  003EA2  0E00               	movlw	0
   602  003EA4  6EDF               	movwf	indf2,c
   603  003EA6  0E0D               	movlw	low _NeoBlue
   604  003EA8  2425               	addwf	NeoInit@NeoPixel^0,w,c
   605  003EAA  6ED9               	movwf	fsr2l,c
   606  003EAC  6ADA               	clrf	fsr2h,c
   607  003EAE  0E00               	movlw	high _NeoBlue
   608  003EB0  22DA               	addwfc	fsr2h,f,c
   609  003EB2  0E40               	movlw	64
   610  003EB4  6EDF               	movwf	indf2,c
   611  003EB6  0E01               	movlw	low _NeoRed
   612  003EB8  2425               	addwf	NeoInit@NeoPixel^0,w,c
   613  003EBA  6ED9               	movwf	fsr2l,c
   614  003EBC  6ADA               	clrf	fsr2h,c
   615  003EBE  0E00               	movlw	high _NeoRed
   616  003EC0  22DA               	addwfc	fsr2h,f,c
   617  003EC2  0E40               	movlw	64
   618  003EC4  6EDF               	movwf	indf2,c
   619  003EC6  EFF2  F01F         	goto	l820
   620  003ECA                     l802:
   621  003ECA  FFFF               	dw	65535	; assembler added errata NOP
   622  003ECC  0E05               	movlw	5
   623  003ECE  6425               	cpfsgt	NeoInit@NeoPixel^0,c
   624  003ED0  EF6C  F01F         	goto	u71
   625  003ED4  EF6F  F01F         	goto	u70
   626  003ED8                     u71:
   627  003ED8  FFFF               	dw	65535	; assembler added errata NOP
   628  003EDA  EF94  F01F         	goto	l808
   629  003EDE                     u70:
   630  003EDE  FFFF               	dw	65535	; assembler added errata NOP
   631  003EE0  0E08               	movlw	8
   632  003EE2  6025               	cpfslt	NeoInit@NeoPixel^0,c
   633  003EE4  EF76  F01F         	goto	u81
   634  003EE8  EF79  F01F         	goto	u80
   635  003EEC                     u81:
   636  003EEC  FFFF               	dw	65535	; assembler added errata NOP
   637  003EEE  EF94  F01F         	goto	l808
   638  003EF2                     u80:
   639  003EF2  FFFF               	dw	65535	; assembler added errata NOP
   640  003EF4                     
   641                           ;NeoPxl.c: 58:          { NeoGreen[NeoPixel] = 64; NeoBlue[NeoPixel] = 0; NeoRed[NeoPixe
      +                          l] = 0; }
   642  003EF4  0E19               	movlw	low _NeoGreen
   643  003EF6  2425               	addwf	NeoInit@NeoPixel^0,w,c
   644  003EF8  6ED9               	movwf	fsr2l,c
   645  003EFA  6ADA               	clrf	fsr2h,c
   646  003EFC  0E00               	movlw	high _NeoGreen
   647  003EFE  22DA               	addwfc	fsr2h,f,c
   648  003F00  0E40               	movlw	64
   649  003F02  6EDF               	movwf	indf2,c
   650  003F04  0E0D               	movlw	low _NeoBlue
   651  003F06  2425               	addwf	NeoInit@NeoPixel^0,w,c
   652  003F08  6ED9               	movwf	fsr2l,c
   653  003F0A  6ADA               	clrf	fsr2h,c
   654  003F0C  0E00               	movlw	high _NeoBlue
   655  003F0E  22DA               	addwfc	fsr2h,f,c
   656  003F10  0E00               	movlw	0
   657  003F12  6EDF               	movwf	indf2,c
   658  003F14  0E01               	movlw	low _NeoRed
   659  003F16  2425               	addwf	NeoInit@NeoPixel^0,w,c
   660  003F18  6ED9               	movwf	fsr2l,c
   661  003F1A  6ADA               	clrf	fsr2h,c
   662  003F1C  0E00               	movlw	high _NeoRed
   663  003F1E  22DA               	addwfc	fsr2h,f,c
   664  003F20  0E00               	movlw	0
   665  003F22  6EDF               	movwf	indf2,c
   666  003F24  EFF2  F01F         	goto	l820
   667  003F28                     l808:
   668  003F28  FFFF               	dw	65535	; assembler added errata NOP
   669  003F2A  0E07               	movlw	7
   670  003F2C  6425               	cpfsgt	NeoInit@NeoPixel^0,c
   671  003F2E  EF9B  F01F         	goto	u91
   672  003F32  EF9E  F01F         	goto	u90
   673  003F36                     u91:
   674  003F36  FFFF               	dw	65535	; assembler added errata NOP
   675  003F38  EFC3  F01F         	goto	l814
   676  003F3C                     u90:
   677  003F3C  FFFF               	dw	65535	; assembler added errata NOP
   678  003F3E  0E0A               	movlw	10
   679  003F40  6025               	cpfslt	NeoInit@NeoPixel^0,c
   680  003F42  EFA5  F01F         	goto	u101
   681  003F46  EFA8  F01F         	goto	u100
   682  003F4A                     u101:
   683  003F4A  FFFF               	dw	65535	; assembler added errata NOP
   684  003F4C  EFC3  F01F         	goto	l814
   685  003F50                     u100:
   686  003F50  FFFF               	dw	65535	; assembler added errata NOP
   687  003F52                     
   688                           ;NeoPxl.c: 60:          { NeoGreen[NeoPixel] = 64; NeoBlue[NeoPixel] = 0; NeoRed[NeoPixe
      +                          l] = 64; }
   689  003F52  0E19               	movlw	low _NeoGreen
   690  003F54  2425               	addwf	NeoInit@NeoPixel^0,w,c
   691  003F56  6ED9               	movwf	fsr2l,c
   692  003F58  6ADA               	clrf	fsr2h,c
   693  003F5A  0E00               	movlw	high _NeoGreen
   694  003F5C  22DA               	addwfc	fsr2h,f,c
   695  003F5E  0E40               	movlw	64
   696  003F60  6EDF               	movwf	indf2,c
   697  003F62  0E0D               	movlw	low _NeoBlue
   698  003F64  2425               	addwf	NeoInit@NeoPixel^0,w,c
   699  003F66  6ED9               	movwf	fsr2l,c
   700  003F68  6ADA               	clrf	fsr2h,c
   701  003F6A  0E00               	movlw	high _NeoBlue
   702  003F6C  22DA               	addwfc	fsr2h,f,c
   703  003F6E  0E00               	movlw	0
   704  003F70  6EDF               	movwf	indf2,c
   705  003F72  0E01               	movlw	low _NeoRed
   706  003F74  2425               	addwf	NeoInit@NeoPixel^0,w,c
   707  003F76  6ED9               	movwf	fsr2l,c
   708  003F78  6ADA               	clrf	fsr2h,c
   709  003F7A  0E00               	movlw	high _NeoRed
   710  003F7C  22DA               	addwfc	fsr2h,f,c
   711  003F7E  0E40               	movlw	64
   712  003F80  6EDF               	movwf	indf2,c
   713  003F82  EFF2  F01F         	goto	l820
   714  003F86                     l814:
   715  003F86  FFFF               	dw	65535	; assembler added errata NOP
   716  003F88  0E09               	movlw	9
   717  003F8A  6425               	cpfsgt	NeoInit@NeoPixel^0,c
   718  003F8C  EFCA  F01F         	goto	u111
   719  003F90  EFCD  F01F         	goto	u110
   720  003F94                     u111:
   721  003F94  FFFF               	dw	65535	; assembler added errata NOP
   722  003F96  EFF2  F01F         	goto	l59
   723  003F9A                     u110:
   724  003F9A  FFFF               	dw	65535	; assembler added errata NOP
   725  003F9C  0E0C               	movlw	12
   726  003F9E  6025               	cpfslt	NeoInit@NeoPixel^0,c
   727  003FA0  EFD4  F01F         	goto	u121
   728  003FA4  EFD7  F01F         	goto	u120
   729  003FA8                     u121:
   730  003FA8  FFFF               	dw	65535	; assembler added errata NOP
   731  003FAA  EFF2  F01F         	goto	l59
   732  003FAE                     u120:
   733  003FAE  FFFF               	dw	65535	; assembler added errata NOP
   734  003FB0                     
   735                           ;NeoPxl.c: 62:          { NeoGreen[NeoPixel] = 64; NeoBlue[NeoPixel] = 64; NeoRed[NeoPix
      +                          el] = 0; }
   736  003FB0  0E19               	movlw	low _NeoGreen
   737  003FB2  2425               	addwf	NeoInit@NeoPixel^0,w,c
   738  003FB4  6ED9               	movwf	fsr2l,c
   739  003FB6  6ADA               	clrf	fsr2h,c
   740  003FB8  0E00               	movlw	high _NeoGreen
   741  003FBA  22DA               	addwfc	fsr2h,f,c
   742  003FBC  0E40               	movlw	64
   743  003FBE  6EDF               	movwf	indf2,c
   744  003FC0  0E0D               	movlw	low _NeoBlue
   745  003FC2  2425               	addwf	NeoInit@NeoPixel^0,w,c
   746  003FC4  6ED9               	movwf	fsr2l,c
   747  003FC6  6ADA               	clrf	fsr2h,c
   748  003FC8  0E00               	movlw	high _NeoBlue
   749  003FCA  22DA               	addwfc	fsr2h,f,c
   750  003FCC  0E40               	movlw	64
   751  003FCE  6EDF               	movwf	indf2,c
   752  003FD0  0E01               	movlw	low _NeoRed
   753  003FD2  2425               	addwf	NeoInit@NeoPixel^0,w,c
   754  003FD4  6ED9               	movwf	fsr2l,c
   755  003FD6  6ADA               	clrf	fsr2h,c
   756  003FD8  0E00               	movlw	high _NeoRed
   757  003FDA  22DA               	addwfc	fsr2h,f,c
   758  003FDC  0E00               	movlw	0
   759  003FDE  6EDF               	movwf	indf2,c
   760  003FE0  EFF2  F01F         	goto	l820
   761  003FE4                     l59:
   762  003FE4                     l820:
   763  003FE4  FFFF               	dw	65535	; assembler added errata NOP
   764                           
   765                           ;NeoPxl.c: 63:    }
   766  003FE6  2A25               	incf	NeoInit@NeoPixel^0,f,c
   767  003FE8  0E0B               	movlw	11
   768  003FEA  6425               	cpfsgt	NeoInit@NeoPixel^0,c
   769  003FEC  EFFA  F01F         	goto	u131
   770  003FF0  EFFD  F01F         	goto	u130
   771  003FF4                     u131:
   772  003FF4  FFFF               	dw	65535	; assembler added errata NOP
   773  003FF6  EFE2  F01E         	goto	l786
   774  003FFA                     u130:
   775  003FFA  FFFF               	dw	65535	; assembler added errata NOP
   776  003FFC  0012               	return		;funcret
   777  003FFE  FFFF               	dw	65535	; errata NOP
   778  004000                     __end_of_NeoInit:
   779                           	opt callstack 0
   780                           
   781 ;; *************** function _NeoDraw *****************
   782 ;; Defined at:
   783 ;;		line 107 in file "NeoPxl.c"
   784 ;; Parameters:    Size  Location     Type
   785 ;;		None
   786 ;; Auto vars:     Size  Location     Type
   787 ;;  BitCount        1    5[COMRAM] char 
   788 ;;  NeoPixel        1    4[COMRAM] unsigned char 
   789 ;; Return value:  Size  Location     Type
   790 ;;                  1    wreg      void 
   791 ;; Registers used:
   792 ;;		wreg, fsr2l, fsr2h, status,2, status,0, cstack
   793 ;; Tracked objects:
   794 ;;		On entry : 0/0
   795 ;;		On exit  : 0/0
   796 ;;		Unchanged: 0/0
   797 ;; Data sizes:     COMRAM   BANK0   BANK2   BANK3   BANK4   BANK1   BANK5
   798 ;;      Params:         0       0       0       0       0       0       0
   799 ;;      Locals:         2       0       0       0       0       0       0
   800 ;;      Temps:          3       0       0       0       0       0       0
   801 ;;      Totals:         5       0       0       0       0       0       0
   802 ;;Total ram usage:        5 bytes
   803 ;; Hardware stack levels used:    1
   804 ;; Hardware stack levels required when called:    1
   805 ;; This function calls:
   806 ;;		_NeoBit
   807 ;; This function is called by:
   808 ;;		_main
   809 ;; This function uses a non-reentrant model
   810 ;;
   811                           
   812                           	psect	text5
   813  003CB0                     __ptext5:
   814                           	opt callstack 0
   815  003CB0                     _NeoDraw:
   816                           	opt callstack 0
   817  003CB0  FFFF               	dw	65535	; assembler added errata NOP
   818  003CB2                     
   819                           ;NeoPxl.c: 109:    uint8_t NeoPixel;;NeoPxl.c: 110:    int8_t BitCount;;NeoPxl.c: 114:  
      +                            for (NeoPixel = 0; NeoPixel < 12; NeoPixel++)
   820  003CB2  0E00               	movlw	0
   821  003CB4  6E29               	movwf	NeoDraw@NeoPixel^0,c
   822  003CB6                     l830:
   823  003CB6  FFFF               	dw	65535	; assembler added errata NOP
   824                           
   825                           ;NeoPxl.c: 115:     {;NeoPxl.c: 116:       for (BitCount = 7; BitCount >= 0; BitCount--)
   826  003CB8  0E07               	movlw	7
   827  003CBA  6E2A               	movwf	NeoDraw@BitCount^0,c
   828  003CBC                     l836:
   829  003CBC  FFFF               	dw	65535	; assembler added errata NOP
   830                           
   831                           ;NeoPxl.c: 117:           NeoBit(NeoGreen[NeoPixel] & (1 <<(BitCount)));
   832  003CBE  0E19               	movlw	low _NeoGreen
   833  003CC0  2429               	addwf	NeoDraw@NeoPixel^0,w,c
   834  003CC2  6ED9               	movwf	fsr2l,c
   835  003CC4  6ADA               	clrf	fsr2h,c
   836  003CC6  0E00               	movlw	high _NeoGreen
   837  003CC8  22DA               	addwfc	fsr2h,f,c
   838  003CCA  50DF               	movf	indf2,w,c
   839  003CCC  6E26               	movwf	??_NeoDraw^0,c
   840  003CCE  C02A  F027         	movff	NeoDraw@BitCount,??_NeoDraw+1
   841  003CD2  0E01               	movlw	1
   842  003CD4  6E28               	movwf	(??_NeoDraw+2)^0,c
   843  003CD6  2A27               	incf	(??_NeoDraw+1)^0,f,c
   844  003CD8  EF71  F01E         	goto	u144
   845  003CDC                     u145:
   846  003CDC  FFFF               	dw	65535	; assembler added errata NOP
   847  003CDE  90D8               	bcf	status,0,c
   848  003CE0  3628               	rlcf	(??_NeoDraw+2)^0,f,c
   849  003CE2                     u144:
   850  003CE2  FFFF               	dw	65535	; assembler added errata NOP
   851  003CE4  2E27               	decfsz	(??_NeoDraw+1)^0,f,c
   852  003CE6  EF6E  F01E         	goto	u145
   853  003CEA  5028               	movf	(??_NeoDraw+2)^0,w,c
   854  003CEC  1426               	andwf	??_NeoDraw^0,w,c
   855  003CEE  ECF0  F01D         	call	_NeoBit
   856  003CF2  062A               	decf	NeoDraw@BitCount^0,f,c
   857  003CF4  BE2A               	btfsc	NeoDraw@BitCount^0,7,c
   858  003CF6  EF82  F01E         	goto	u150
   859  003CFA  EF7F  F01E         	goto	u151
   860  003CFE                     u151:
   861  003CFE  FFFF               	dw	65535	; assembler added errata NOP
   862  003D00  EF5E  F01E         	goto	l836
   863  003D04                     u150:
   864  003D04  FFFF               	dw	65535	; assembler added errata NOP
   865  003D06                     
   866                           ;NeoPxl.c: 118:       for (BitCount = 7; BitCount >= 0; BitCount--)
   867  003D06  0E07               	movlw	7
   868  003D08  6E2A               	movwf	NeoDraw@BitCount^0,c
   869  003D0A                     l848:
   870  003D0A  FFFF               	dw	65535	; assembler added errata NOP
   871                           
   872                           ;NeoPxl.c: 119:          NeoBit(NeoRed[NeoPixel] & (1 <<(BitCount)));
   873  003D0C  0E01               	movlw	low _NeoRed
   874  003D0E  2429               	addwf	NeoDraw@NeoPixel^0,w,c
   875  003D10  6ED9               	movwf	fsr2l,c
   876  003D12  6ADA               	clrf	fsr2h,c
   877  003D14  0E00               	movlw	high _NeoRed
   878  003D16  22DA               	addwfc	fsr2h,f,c
   879  003D18  50DF               	movf	indf2,w,c
   880  003D1A  6E26               	movwf	??_NeoDraw^0,c
   881  003D1C  C02A  F027         	movff	NeoDraw@BitCount,??_NeoDraw+1
   882  003D20  0E01               	movlw	1
   883  003D22  6E28               	movwf	(??_NeoDraw+2)^0,c
   884  003D24  2A27               	incf	(??_NeoDraw+1)^0,f,c
   885  003D26  EF98  F01E         	goto	u164
   886  003D2A                     u165:
   887  003D2A  FFFF               	dw	65535	; assembler added errata NOP
   888  003D2C  90D8               	bcf	status,0,c
   889  003D2E  3628               	rlcf	(??_NeoDraw+2)^0,f,c
   890  003D30                     u164:
   891  003D30  FFFF               	dw	65535	; assembler added errata NOP
   892  003D32  2E27               	decfsz	(??_NeoDraw+1)^0,f,c
   893  003D34  EF95  F01E         	goto	u165
   894  003D38  5028               	movf	(??_NeoDraw+2)^0,w,c
   895  003D3A  1426               	andwf	??_NeoDraw^0,w,c
   896  003D3C  ECF0  F01D         	call	_NeoBit
   897  003D40  062A               	decf	NeoDraw@BitCount^0,f,c
   898  003D42  BE2A               	btfsc	NeoDraw@BitCount^0,7,c
   899  003D44  EFA9  F01E         	goto	u170
   900  003D48  EFA6  F01E         	goto	u171
   901  003D4C                     u171:
   902  003D4C  FFFF               	dw	65535	; assembler added errata NOP
   903  003D4E  EF85  F01E         	goto	l848
   904  003D52                     u170:
   905  003D52  FFFF               	dw	65535	; assembler added errata NOP
   906  003D54                     
   907                           ;NeoPxl.c: 120:       for (BitCount = 7; BitCount >= 0; BitCount--)
   908  003D54  0E07               	movlw	7
   909  003D56  6E2A               	movwf	NeoDraw@BitCount^0,c
   910  003D58                     l860:
   911  003D58  FFFF               	dw	65535	; assembler added errata NOP
   912                           
   913                           ;NeoPxl.c: 121:          NeoBit(NeoBlue[NeoPixel] & (1 <<(BitCount)));
   914  003D5A  0E0D               	movlw	low _NeoBlue
   915  003D5C  2429               	addwf	NeoDraw@NeoPixel^0,w,c
   916  003D5E  6ED9               	movwf	fsr2l,c
   917  003D60  6ADA               	clrf	fsr2h,c
   918  003D62  0E00               	movlw	high _NeoBlue
   919  003D64  22DA               	addwfc	fsr2h,f,c
   920  003D66  50DF               	movf	indf2,w,c
   921  003D68  6E26               	movwf	??_NeoDraw^0,c
   922  003D6A  C02A  F027         	movff	NeoDraw@BitCount,??_NeoDraw+1
   923  003D6E  0E01               	movlw	1
   924  003D70  6E28               	movwf	(??_NeoDraw+2)^0,c
   925  003D72  2A27               	incf	(??_NeoDraw+1)^0,f,c
   926  003D74  EFBF  F01E         	goto	u184
   927  003D78                     u185:
   928  003D78  FFFF               	dw	65535	; assembler added errata NOP
   929  003D7A  90D8               	bcf	status,0,c
   930  003D7C  3628               	rlcf	(??_NeoDraw+2)^0,f,c
   931  003D7E                     u184:
   932  003D7E  FFFF               	dw	65535	; assembler added errata NOP
   933  003D80  2E27               	decfsz	(??_NeoDraw+1)^0,f,c
   934  003D82  EFBC  F01E         	goto	u185
   935  003D86  5028               	movf	(??_NeoDraw+2)^0,w,c
   936  003D88  1426               	andwf	??_NeoDraw^0,w,c
   937  003D8A  ECF0  F01D         	call	_NeoBit
   938  003D8E  062A               	decf	NeoDraw@BitCount^0,f,c
   939  003D90  BE2A               	btfsc	NeoDraw@BitCount^0,7,c
   940  003D92  EFD0  F01E         	goto	u190
   941  003D96  EFCD  F01E         	goto	u191
   942  003D9A                     u191:
   943  003D9A  FFFF               	dw	65535	; assembler added errata NOP
   944  003D9C  EFAC  F01E         	goto	l860
   945  003DA0                     u190:
   946  003DA0  FFFF               	dw	65535	; assembler added errata NOP
   947  003DA2                     
   948                           ;NeoPxl.c: 122:     }
   949  003DA2  2A29               	incf	NeoDraw@NeoPixel^0,f,c
   950  003DA4  0E0B               	movlw	11
   951  003DA6  6429               	cpfsgt	NeoDraw@NeoPixel^0,c
   952  003DA8  EFD8  F01E         	goto	u201
   953  003DAC  EFDB  F01E         	goto	u200
   954  003DB0                     u201:
   955  003DB0  FFFF               	dw	65535	; assembler added errata NOP
   956  003DB2  EF5B  F01E         	goto	l830
   957  003DB6                     u200:
   958  003DB6  FFFF               	dw	65535	; assembler added errata NOP
   959  003DB8                     
   960                           ;NeoPxl.c: 123:    PORTDbits.RD0 = 0;
   961  003DB8  9083               	bcf	131,0,c	;volatile
   962  003DBA  0012               	return		;funcret
   963  003DBC  FFFF               	dw	65535	; errata NOP
   964  003DBE                     __end_of_NeoDraw:
   965                           	opt callstack 0
   966                           
   967 ;; *************** function _NeoBit *****************
   968 ;; Defined at:
   969 ;;		line 75 in file "NeoPxl.c"
   970 ;; Parameters:    Size  Location     Type
   971 ;;  Bit             1    wreg     unsigned char 
   972 ;; Auto vars:     Size  Location     Type
   973 ;;  Bit             1    0[COMRAM] unsigned char 
   974 ;; Return value:  Size  Location     Type
   975 ;;                  1    wreg      void 
   976 ;; Registers used:
   977 ;;		wreg, status,2
   978 ;; Tracked objects:
   979 ;;		On entry : 0/0
   980 ;;		On exit  : 0/0
   981 ;;		Unchanged: 0/0
   982 ;; Data sizes:     COMRAM   BANK0   BANK2   BANK3   BANK4   BANK1   BANK5
   983 ;;      Params:         0       0       0       0       0       0       0
   984 ;;      Locals:         1       0       0       0       0       0       0
   985 ;;      Temps:          0       0       0       0       0       0       0
   986 ;;      Totals:         1       0       0       0       0       0       0
   987 ;;Total ram usage:        1 bytes
   988 ;; Hardware stack levels used:    1
   989 ;; This function calls:
   990 ;;		Nothing
   991 ;; This function is called by:
   992 ;;		_NeoDraw
   993 ;; This function uses a non-reentrant model
   994 ;;
   995                           
   996                           	psect	text6
   997  003BE0                     __ptext6:
   998                           	opt callstack 0
   999  003BE0                     _NeoBit:
  1000                           	opt callstack 0
  1001  003BE0  FFFF               	dw	65535	; assembler added errata NOP
  1002                           
  1003                           ;incstack = 0
  1004                           ;NeoBit@Bit stored from wreg
  1005  003BE2  6E25               	movwf	NeoBit@Bit^0,c
  1006  003BE4                     
  1007                           ;NeoPxl.c: 75: void NeoBit(uint8_t Bit);NeoPxl.c: 76: {;NeoPxl.c: 77:    if (Bit != 0)
  1008  003BE4  5025               	movf	NeoBit@Bit^0,w,c
  1009  003BE6  B4D8               	btfsc	status,2,c
  1010  003BE8  EFF8  F01D         	goto	u11
  1011  003BEC  EFFB  F01D         	goto	u10
  1012  003BF0                     u11:
  1013  003BF0  FFFF               	dw	65535	; assembler added errata NOP
  1014  003BF2  EF07  F01E         	goto	l68
  1015  003BF6                     u10:
  1016  003BF6  FFFF               	dw	65535	; assembler added errata NOP
  1017  003BF8                     
  1018                           ;NeoPxl.c: 78:    {;NeoPxl.c: 79:       PORTDbits.RD0 = 1;
  1019  003BF8  8083               	bsf	131,0,c	;volatile
  1020                           
  1021                           ;NeoPxl.c: 80:       __nop();
  1022  003BFA  F000               	nop	
  1023                           
  1024                           ;NeoPxl.c: 81:       __nop();
  1025  003BFC  F000               	nop	
  1026                           
  1027                           ;NeoPxl.c: 82:       __nop();
  1028  003BFE  F000               	nop	
  1029                           
  1030                           ;NeoPxl.c: 83:       __nop();
  1031  003C00  F000               	nop	
  1032                           
  1033                           ;NeoPxl.c: 84:       __nop();
  1034  003C02  F000               	nop	
  1035                           
  1036                           ;NeoPxl.c: 85:       __nop();
  1037  003C04  F000               	nop	
  1038                           
  1039                           ;NeoPxl.c: 86:       __nop();
  1040  003C06  F000               	nop	
  1041                           
  1042                           ;NeoPxl.c: 87:       PORTDbits.RD0 = 0;
  1043  003C08  9083               	bcf	131,0,c	;volatile
  1044                           
  1045                           ;NeoPxl.c: 88:    }
  1046  003C0A  EF0D  F01E         	goto	l70
  1047  003C0E                     l68:
  1048  003C0E  FFFF               	dw	65535	; assembler added errata NOP
  1049                           
  1050                           ;NeoPxl.c: 90:    {;NeoPxl.c: 91:        PORTDbits.RD0 = 1;
  1051  003C10  8083               	bsf	131,0,c	;volatile
  1052                           
  1053                           ;NeoPxl.c: 92:        __nop();
  1054  003C12  F000               	nop	
  1055                           
  1056                           ;NeoPxl.c: 93:        __nop();
  1057  003C14  F000               	nop	
  1058                           
  1059                           ;NeoPxl.c: 94:        __nop();
  1060  003C16  F000               	nop	
  1061                           
  1062                           ;NeoPxl.c: 95:        PORTDbits.RD0 = 0;
  1063  003C18  9083               	bcf	131,0,c	;volatile
  1064  003C1A                     l70:
  1065  003C1A  FFFF               	dw	65535	; assembler added errata NOP
  1066  003C1C  0012               	return		;funcret
  1067  003C1E  FFFF               	dw	65535	; errata NOP
  1068  003C20                     __end_of_NeoBit:
  1069                           	opt callstack 0
  1070  003C20  FFFF               	dw	65535	; assembler added errata NOP
  1071                           
  1072                           	psect	rparam
  1073  0000                     tosu	equ	0xFFF
  1074                           tosh	equ	0xFFE
  1075                           tosl	equ	0xFFD
  1076                           stkptr	equ	0xFFC
  1077                           pclatu	equ	0xFFB
  1078                           pclath	equ	0xFFA
  1079                           pcl	equ	0xFF9
  1080                           tblptru	equ	0xFF8
  1081                           tblptrh	equ	0xFF7
  1082                           tblptrl	equ	0xFF6
  1083                           tablat	equ	0xFF5
  1084                           prodh	equ	0xFF4
  1085                           prodl	equ	0xFF3
  1086                           indf0	equ	0xFEF
  1087                           postinc0	equ	0xFEE
  1088                           postdec0	equ	0xFED
  1089                           preinc0	equ	0xFEC
  1090                           plusw0	equ	0xFEB
  1091                           fsr0h	equ	0xFEA
  1092                           fsr0l	equ	0xFE9
  1093                           wreg	equ	0xFE8
  1094                           indf1	equ	0xFE7
  1095                           postinc1	equ	0xFE6
  1096                           postdec1	equ	0xFE5
  1097                           preinc1	equ	0xFE4
  1098                           plusw1	equ	0xFE3
  1099                           fsr1h	equ	0xFE2
  1100                           fsr1l	equ	0xFE1
  1101                           bsr	equ	0xFE0
  1102                           indf2	equ	0xFDF
  1103                           postinc2	equ	0xFDE
  1104                           postdec2	equ	0xFDD
  1105                           preinc2	equ	0xFDC
  1106                           plusw2	equ	0xFDB
  1107                           fsr2h	equ	0xFDA
  1108                           fsr2l	equ	0xFD9
  1109                           status	equ	0xFD8


Data Sizes:
    Strings     0
    Constant    0
    Data        0
    BSS         36
    Persistent  0
    Stack       0

Auto Spaces:
    Space          Size  Autos    Used
    COMRAM           95      7      43
    BANK0           160      0       0
    BANK2           256      0       0
    BANK3           256      0       0
    BANK4           256      0       0
    BANK1           256      0       0
    BANK5           239      0       0

Pointer List with Targets:

    None.

Critical Paths under _main in COMRAM

    _main->_NeoDraw
    _NeoDraw->_NeoBit

Critical Paths under _main in BANK0

    None.

Critical Paths under _main in BANK2

    None.

Critical Paths under _main in BANK3

    None.

Critical Paths under _main in BANK4

    None.

Critical Paths under _main in BANK1

    None.

Critical Paths under _main in BANK5

    None.

Call Graph Tables:

 ---------------------------------------------------------------------------------
 (Depth) Function   	        Calls       Base Space   Used Autos Params    Refs
 ---------------------------------------------------------------------------------
 (0) _main                                                 1     1      0     870
                                              6 COMRAM     1     1      0
                            _NeoDraw
                            _NeoInit
                          _NeoRotate
                     _initialisation
                             _rxComm
 ---------------------------------------------------------------------------------
 (1) _rxComm                                               1     1      0      15
                                              0 COMRAM     1     1      0
 ---------------------------------------------------------------------------------
 (1) _initialisation                                       0     0      0       0
 ---------------------------------------------------------------------------------
 (1) _NeoRotate                                            4     4      0     165
                                              0 COMRAM     4     4      0
 ---------------------------------------------------------------------------------
 (1) _NeoInit                                              1     1      0     465
                                              0 COMRAM     1     1      0
 ---------------------------------------------------------------------------------
 (1) _NeoDraw                                              5     5      0     225
                                              1 COMRAM     5     5      0
                             _NeoBit
 ---------------------------------------------------------------------------------
 (2) _NeoBit                                               1     1      0      15
                                              0 COMRAM     1     1      0
 ---------------------------------------------------------------------------------
 Estimated maximum stack depth 2
 ---------------------------------------------------------------------------------

 Call Graph Graphs:

 _main (ROOT)
   _NeoDraw
     _NeoBit
   _NeoInit
   _NeoRotate
   _initialisation
   _rxComm

 Address spaces:
Name               Size   Autos  Total    Cost      Usage
BIGRAM             5EE      0       0      16        0.0%
EEDATA             100      0       0       0        0.0%
BITBANK4           100      0       0      13        0.0%
BANK4              100      0       0       6        0.0%
BITBANK3           100      0       0      12        0.0%
BANK3              100      0       0       5        0.0%
BITBANK2           100      0       0      11        0.0%
BANK2              100      0       0       4        0.0%
BITBANK1           100      0       0       9        0.0%
BANK1              100      0       0      10        0.0%
BITBANK5            EF      0       0      14        0.0%
BANK5               EF      0       0      15        0.0%
BITBANK0            A0      0       0       8        0.0%
BANK0               A0      0       0       3        0.0%
BITCOMRAM           5F      0       0       0        0.0%
COMRAM              5F      7      2B       1       45.3%
BITSFR_6             0      0       0     200        0.0%
SFR_6                0      0       0     200        0.0%
BITSFR_5             0      0       0     200        0.0%
SFR_5                0      0       0     200        0.0%
BITSFR_4             0      0       0     200        0.0%
SFR_4                0      0       0     200        0.0%
BITSFR_3             0      0       0     200        0.0%
SFR_3                0      0       0     200        0.0%
BITSFR_2             0      0       0     200        0.0%
SFR_2                0      0       0     200        0.0%
BITSFR_1             0      0       0     200        0.0%
SFR_1                0      0       0     200        0.0%
BITSFR               0      0       0     200        0.0%
SFR                  0      0       0     200        0.0%
STACK                0      0       0       2        0.0%
NULL                 0      0       0       0        0.0%
ABS                  0      0      2B       7        0.0%
DATA                 0      0      2B      17        0.0%
CODE                 0      0       0       0        0.0%


Microchip Technology PIC18 Macro Assembler V2.10 build 88905656 
Symbol Table                                                                                   Fri Feb 21 16:35:35 2020

                                                      l33 3B94  
                                                      l36 3B9C  
                                                      l70 3C1A  
                                                      l38 3BB0  
                                                      l39 3BB8  
                                                      l81 3DBA  
                                                      l65 3FFC  
                                                      l74 3DB8  
                                                      l59 3FE4  
                                                      l91 3CA0  
                                                      l68 3C0E  
                                                      l92 3CAC  
                                                      u10 3BF6  
                                                      u11 3BF0  
                                                      u20 3DD8  
                                                      u21 3DD2  
                                                      u30 3E22  
                                                      u31 3E1C  
                                                      u40 3E36  
                                                      u41 3E30  
                                                      u50 3E80  
                                                      u51 3E7A  
                                                      u60 3E94  
                                                      u61 3E8E  
                                                      u70 3EDE  
                                                      u71 3ED8  
                                                      u80 3EF2  
                                                      u81 3EEC  
                                                      u90 3F3C  
                                                      u91 3F36  
                                            __CFG_CP0$OFF 000000  
                                            __CFG_CP1$OFF 000000  
                                            __CFG_CP2$OFF 000000  
                                            __CFG_CP3$OFF 000000  
                                             __CFG_OSC$HS 000000  
                                                     l800 3E96  
                                                     l810 3F3E  
                                                     l802 3ECA  
                                                     l812 3F52  
                                                     l804 3EE0  
                                                     l820 3FE4  
                                                     l900 3BCA  
                                                     l830 3CB6  
                                                     l822 3FE8  
                                                     l814 3F86  
                                                     l806 3EF4  
                                                     l902 3BD0  
                                                     l840 3CF4  
                                                     l824 3CB2  
                                                     l816 3F9C  
                                                     l808 3F28  
                                                     l904 3BD4  
                                                     l770 3BF8  
                                                     l850 3D40  
                                                     l842 3D06  
                                                     l818 3FB0  
                                                     l860 3D58  
                                                     l852 3D42  
                                                     l836 3CBC  
                                                     l780 3DC0  
                                                     l772 3B86  
                                                     l862 3D8E  
                                                     l854 3D54  
                                                     l838 3CF2  
                                                     l790 3E0E  
                                                     l870 3C24  
                                                     l774 3B8E  
                                                     l768 3BE4  
                                                     l864 3D90  
                                                     l848 3D0A  
                                                     l792 3E24  
                                                     l880 3C8A  
                                                     l872 3C30  
                                                     l776 3B90  
                                                     l866 3DA2  
                                                     l794 3E38  
                                                     l786 3DC4  
                                                     l882 3C8C  
                                                     l778 3B92  
                                                     l868 3DA4  
                                                     l796 3E6C  
                                                     l788 3DDA  
                                                     l884 3B9A  
                                                     l892 3BBC  
                                                     l798 3E82  
                                                     l878 3C34  
                                                     l886 3B9A  
                                                     l894 3BBC  
                                                     l888 3BB6  
                                                     l896 3BC2  
                                                     l898 3BC6  
                                            __CFG_CPB$OFF 000000  
                                                     u100 3F50  
                                                     u101 3F4A  
                                                     u110 3F9A  
                                                     u111 3F94  
                                                     u200 3DB6  
                                                     u120 3FAE  
                                                     u201 3DB0  
                                                     u121 3FA8  
                                                     u130 3FFA  
                                                     u210 3C9E  
                                                     u131 3FF4  
                                                     u211 3C98  
                                                     u220 3BAE  
                                                     u221 3BA8  
                                                     u150 3D04  
                                                     u151 3CFE  
                                                     u144 3CE2  
                                                     u145 3CDC  
                                                     u170 3D52  
                                                     u171 3D4C  
                                                     u164 3D30  
                                                     u165 3D2A  
                                                     u190 3DA0  
                                                     u191 3D9A  
                                                     u184 3D7E  
                                                     u185 3D78  
                                            __CFG_CPD$OFF 000000  
                                            __CFG_BOR$OFF 000000  
                                            __CFG_BORV$25 000000  
                                                     wreg 000FE8  
                                            __CFG_LVP$OFF 000000  
                                            __CFG_WDT$OFF 000000  
                                        ??_initialisation 0025  
                                              NeoRotate@B 0027  
                                              NeoRotate@G 0026  
                                              NeoRotate@R 0025  
                                                    _main 3BBC  
                                                    indf1 000FE7  
                                                    indf2 000FDF  
                                                    fsr1l 000FE1  
                                                    fsr2l 000FD9  
                                                    start 0002  
                                            ___param_bank 000000  
                                         __end_of_NeoDraw 3DBE  
                                         __end_of_NeoInit 4000  
                                           __CFG_OSCS$OFF 000000  
                                                   ?_main 0025  
                                                   _RCREG 000FAE  
                                                   _SPBRG 000FAF  
                                                   _TRISD 000F95  
                                           __CFG_PWRT$OFF 000000  
                                           __CFG_WRT0$OFF 000000  
                                           __CFG_WRT1$OFF 000000  
                                           __CFG_WRT2$OFF 000000  
                                           __CFG_WRT3$OFF 000000  
                                          __CFG_EBTR0$OFF 000000  
                                          __CFG_EBTR1$OFF 000000  
                                          __CFG_EBTR2$OFF 000000  
                                          __CFG_EBTR3$OFF 000000  
                                           __CFG_STVR$OFF 000000  
                                           __CFG_WRTB$OFF 000000  
                                           __CFG_WRTC$OFF 000000  
                                           __CFG_WRTD$OFF 000000  
                                          __CFG_EBTRB$OFF 000000  
                                                   status 000FD8  
                                         __initialization 3B72  
                                            __end_of_main 3BE0  
                                                  ??_main 002B  
                                           __activetblptr 000000  
                                          __CFG_WDTPS$128 000000  
                                      __size_of_NeoRotate 008E  
                                               ??_NeoDraw 0026  
                                               ??_NeoInit 0025  
                                                  _NeoBit 3BE0  
                                                  _NeoRed 0001  
                                                  clear_0 3B78  
                                                  _rxComm 3B98  
                                              __accesstop 0060  
                                 __end_of__initialization 3B7E  
                                           ___rparam_used 000001  
                                          __pcstackCOMRAM 0025  
                                       __end_of_NeoRotate 3CB0  
                                                 ?_NeoBit 0025  
                                                 ?_rxComm 0025  
                                         NeoDraw@BitCount 002A  
                                                 _NeoBlue 000D  
                                                 _NeoDraw 3CB0  
                                                 _NeoInit 3DBE  
                                                 __Hparam 0000  
                                         __size_of_NeoBit 0040  
                                                 __Lparam 0000  
                                       NeoRotate@NeoPixel 0028  
                                         NeoDraw@NeoPixel 0029  
                                                 __pcinit 3B72  
                                                 __ramtop 0600  
                                         __size_of_rxComm 0024  
                                                 __ptext0 3BBC  
                                                 __ptext1 3B98  
                                                 __ptext2 3B84  
                                                 __ptext3 3C22  
                                                 __ptext4 3DBE  
                                                 __ptext5 3CB0  
                                                 __ptext6 3BE0  
                                           rxComm@carRecu 0025  
                                    end_of_initialization 3B7E  
                                               _RCSTAbits 000FAB  
                                                 postinc0 000FEE  
                                 __size_of_initialisation 0014  
                                               _PORTDbits 000F83  
                                               NeoBit@Bit 0025  
                                               _TXSTAbits 000FAC  
                                          __end_of_NeoBit 3C20  
                                          __end_of_rxComm 3BBC  
                                     start_initialization 3B72  
                                               _NeoRotate 3C22  
                                                ??_NeoBit 0025  
                                                ??_rxComm 0025  
                                             __pbssCOMRAM 0001  
                                              ?_NeoRotate 0025  
                                                ?_NeoDraw 0025  
                                                ?_NeoInit 0025  
                                          _initialisation 3B84  
                                         NeoInit@NeoPixel 0025  
                                  __end_of_initialisation 3B98  
                                                _PIR1bits 000F9E  
                                             ??_NeoRotate 0025  
                                                _NeoGreen 0019  
                                        __size_of_NeoDraw 010E  
                                        __size_of_NeoInit 0242  
                                                __Hrparam 0000  
                                         ?_initialisation 0025  
                                                __Lrparam 0000  
                                           __size_of_main 0024  
